Certificate:
    Data:
        Version: 3 (0x2)
        Serial Number: 3 (0x3)
        Signature Algorithm: ecdsa-with-SHA256
        Issuer: CN=ISEN ACI, ST=France, C=FR/emailAddress=hugo.millet@isen.yncrea.fr, O=ISEN, OU=ISEN
        Validity
            Not Before: Apr 30 15:03:14 2023 GMT
            Not After : Jul 29 15:03:14 2023 GMT
        Subject: CN=hugo/emailAddress=hugo.millet@isen.yncrea.fr
        Subject Public Key Info:
            Public Key Algorithm: id-ecPublicKey
                Public-Key: (256 bit)
                pub:
                    04:20:e1:e0:21:24:8b:25:b3:80:b9:a2:2e:c7:3f:
                    f4:e9:de:fe:ec:bd:9f:5e:91:bf:98:4b:2a:d9:5a:
                    ee:d6:66:ce:39:a2:b0:9b:ea:bf:eb:f0:fa:d9:c9:
                    67:04:01:75:a1:2f:88:3e:08:77:d1:49:86:b6:b9:
                    64:32:81:fe:11
                ASN1 OID: prime256v1
                NIST CURVE: P-256
        X509v3 extensions:
            X509v3 Basic Constraints: critical
                CA:FALSE
            Authority Information Access: 
                OCSP - URI:http://127.0.0.1:8888
            X509v3 Subject Key Identifier: 
                2F:BE:E4:62:EE:B8:21:14:9C:02:24:CB:8A:7C:2F:1C:B0:42:04:B4
            X509v3 Authority Key Identifier: 
                B6:7A:2D:7D:35:E0:E1:22:47:C1:48:2F:A5:4E:84:50:56:15:32:E5
    Signature Algorithm: ecdsa-with-SHA256
    Signature Value:
        30:46:02:21:00:e6:bb:55:56:62:aa:ab:44:31:63:69:b0:8a:
        ee:51:1e:4a:ea:9a:10:f6:fd:58:3b:81:62:c1:fe:d8:b7:42:
        57:02:21:00:ad:c3:69:7c:9e:7a:bc:5c:02:eb:d5:37:50:3b:
        c0:ac:a1:91:0b:42:ef:9d:c5:65:0a:a7:9b:6e:1b:1a:4e:91
-----BEGIN CERTIFICATE-----
MIICKTCCAc6gAwIBAgIBAzAKBggqhkjOPQQDAjB6MREwDwYDVQQDDAhJU0VOIEFD
STEPMA0GA1UECAwGRnJhbmNlMQswCQYDVQQGEwJGUjEpMCcGCSqGSIb3DQEJARYa
aHVnby5taWxsZXRAaXNlbi55bmNyZWEuZnIxDTALBgNVBAoMBElTRU4xDTALBgNV
BAsMBElTRU4wHhcNMjMwNDMwMTUwMzE0WhcNMjMwNzI5MTUwMzE0WjA6MQ0wCwYD
VQQDDARodWdvMSkwJwYJKoZIhvcNAQkBFhpodWdvLm1pbGxldEBpc2VuLnluY3Jl
YS5mcjBZMBMGByqGSM49AgEGCCqGSM49AwEHA0IABCDh4CEkiyWzgLmiLsc/9One
/uy9n16Rv5hLKtla7tZmzjmisJvqv+vw+tnJZwQBdaEviD4Id9FJhra5ZDKB/hGj
gYQwgYEwDAYDVR0TAQH/BAIwADAxBggrBgEFBQcBAQQlMCMwIQYIKwYBBQUHMAGG
FWh0dHA6Ly8xMjcuMC4wLjE6ODg4ODAdBgNVHQ4EFgQUL77kYu64IRScAiTLinwv
HLBCBLQwHwYDVR0jBBgwFoAUtnotfTXg4SJHwUgvpU6EUFYVMuUwCgYIKoZIzj0E
AwIDSQAwRgIhAOa7VVZiqqtEMWNpsIruUR5K6poQ9v1YO4Fiwf7Yt0JXAiEArcNp
fJ56vFwC69U3UDvArKGRC0LvncVlCqebbhsaTpE=
-----END CERTIFICATE-----
