Certificate:
    Data:
        Version: 3 (0x2)
        Serial Number: 3 (0x3)
        Signature Algorithm: ecdsa-with-SHA256
        Issuer: CN=ISEN ACI, ST=France, C=FR/emailAddress=hugo.millet@isen.yncrea.fr, O=ISEN, OU=ISEN
        Validity
            Not Before: Apr 28 14:35:44 2023 GMT
            Not After : Jul 27 14:35:44 2023 GMT
        Subject: CN=hugo/emailAddress=hugo.millet@isen.yncrea.fr
        Subject Public Key Info:
            Public Key Algorithm: id-ecPublicKey
                Public-Key: (384 bit)
                pub:
                    04:9f:7a:1d:60:50:c7:f0:76:73:49:47:45:f2:7b:
                    41:08:0c:79:aa:c2:42:9e:a3:ad:3b:2a:a2:fd:94:
                    05:c2:8b:fd:14:08:8e:28:86:1c:58:9b:22:22:46:
                    0b:62:2e:f3:55:46:f1:75:9e:f1:e3:87:03:ea:16:
                    17:de:3e:45:e0:68:4e:ed:36:63:f4:32:b8:9b:d5:
                    e8:76:cd:bf:80:eb:f5:13:8e:fe:62:64:bb:b8:32:
                    3d:aa:1c:40:3e:16:5a
                ASN1 OID: secp384r1
                NIST CURVE: P-384
        X509v3 extensions:
            X509v3 Basic Constraints: critical
                CA:FALSE
            Authority Information Access: 
                OCSP - URI:http://127.0.0.1:8888
            X509v3 Subject Key Identifier: 
                1C:19:EE:6E:25:6D:E3:16:43:AF:DC:22:00:F9:F9:B0:11:49:9F:66
            X509v3 Authority Key Identifier: 
                F1:46:B3:95:98:78:9E:CA:B2:A7:22:B7:37:CC:07:7E:A7:9D:A4:4A
    Signature Algorithm: ecdsa-with-SHA256
    Signature Value:
        30:66:02:31:00:e3:74:7a:75:be:e9:04:d6:27:5f:15:6c:00:
        84:a1:1d:84:89:c7:a2:60:fc:63:06:7e:a7:8b:b6:d8:20:f5:
        9f:06:a1:a3:63:bd:ea:cc:0e:9c:71:9f:0c:0a:0a:a0:b7:02:
        31:00:d3:78:4d:ca:fa:d4:db:33:91:50:b0:e5:dd:2e:55:a7:
        9e:9a:b8:af:43:9f:41:9d:0a:86:b6:77:c5:99:41:e6:de:f9:
        2c:c1:98:14:bf:f0:76:7a:e4:72:c9:0f:13:70
-----BEGIN CERTIFICATE-----
MIICZjCCAeugAwIBAgIBAzAKBggqhkjOPQQDAjB6MREwDwYDVQQDDAhJU0VOIEFD
STEPMA0GA1UECAwGRnJhbmNlMQswCQYDVQQGEwJGUjEpMCcGCSqGSIb3DQEJARYa
aHVnby5taWxsZXRAaXNlbi55bmNyZWEuZnIxDTALBgNVBAoMBElTRU4xDTALBgNV
BAsMBElTRU4wHhcNMjMwNDI4MTQzNTQ0WhcNMjMwNzI3MTQzNTQ0WjA6MQ0wCwYD
VQQDDARodWdvMSkwJwYJKoZIhvcNAQkBFhpodWdvLm1pbGxldEBpc2VuLnluY3Jl
YS5mcjB2MBAGByqGSM49AgEGBSuBBAAiA2IABJ96HWBQx/B2c0lHRfJ7QQgMearC
Qp6jrTsqov2UBcKL/RQIjiiGHFibIiJGC2Iu81VG8XWe8eOHA+oWF94+ReBoTu02
Y/QyuJvV6HbNv4Dr9ROO/mJku7gyPaocQD4WWqOBhDCBgTAMBgNVHRMBAf8EAjAA
MDEGCCsGAQUFBwEBBCUwIzAhBggrBgEFBQcwAYYVaHR0cDovLzEyNy4wLjAuMTo4
ODg4MB0GA1UdDgQWBBQcGe5uJW3jFkOv3CIA+fmwEUmfZjAfBgNVHSMEGDAWgBTx
RrOVmHieyrKnIrc3zAd+p52kSjAKBggqhkjOPQQDAgNpADBmAjEA43R6db7pBNYn
XxVsAIShHYSJx6Jg/GMGfqeLttgg9Z8GoaNjverMDpxxnwwKCqC3AjEA03hNyvrU
2zORULDl3S5Vp56auK9Dn0GdCoa2d8WZQebe+SzBmBS/8HZ65HLJDxNw
-----END CERTIFICATE-----
