Certificate:
    Data:
        Version: 3 (0x2)
        Serial Number: 3 (0x3)
        Signature Algorithm: ecdsa-with-SHA256
        Issuer: CN=ISEN ACI, ST=France, C=FR/emailAddress=hugo.millet@isen.yncrea.fr, O=ISEN, OU=ISEN
        Validity
            Not Before: Apr 28 13:03:49 2023 GMT
            Not After : Jul 27 13:03:49 2023 GMT
        Subject: CN=hugo/emailAddress=hugo.millet@isen.yncrea.fr
        Subject Public Key Info:
            Public Key Algorithm: id-ecPublicKey
                Public-Key: (384 bit)
                pub:
                    04:9f:7a:1d:60:50:c7:f0:76:73:49:47:45:f2:7b:
                    41:08:0c:79:aa:c2:42:9e:a3:ad:3b:2a:a2:fd:94:
                    05:c2:8b:fd:14:08:8e:28:86:1c:58:9b:22:22:46:
                    0b:62:2e:f3:55:46:f1:75:9e:f1:e3:87:03:ea:16:
                    17:de:3e:45:e0:68:4e:ed:36:63:f4:32:b8:9b:d5:
                    e8:76:cd:bf:80:eb:f5:13:8e:fe:62:64:bb:b8:32:
                    3d:aa:1c:40:3e:16:5a
                ASN1 OID: secp384r1
                NIST CURVE: P-384
        X509v3 extensions:
            X509v3 Basic Constraints: critical
                CA:FALSE
            X509v3 Subject Key Identifier: 
                1C:19:EE:6E:25:6D:E3:16:43:AF:DC:22:00:F9:F9:B0:11:49:9F:66
            X509v3 Authority Key Identifier: 
                AD:CA:FC:9E:24:D9:1D:DE:9A:9E:BC:83:1E:F1:6C:1B:96:88:5E:AF
    Signature Algorithm: ecdsa-with-SHA256
    Signature Value:
        30:64:02:30:62:c0:c3:3b:2f:3b:35:d8:22:5d:2b:0a:db:5e:
        ca:4a:eb:cd:c9:03:66:60:85:63:0d:ba:4f:b2:7f:41:1d:5a:
        a6:cf:ba:0c:d0:37:3a:4f:fb:0f:6b:9e:34:ac:80:2a:02:30:
        4e:5b:66:fc:aa:05:82:3c:a4:69:63:e8:eb:cf:eb:91:90:0d:
        e0:1d:57:6a:3b:68:d9:9c:17:85:20:e7:04:63:4c:1c:5b:d6:
        f0:dd:9b:cb:0e:6c:78:c6:7d:6e:98:43
-----BEGIN CERTIFICATE-----
MIICLzCCAbagAwIBAgIBAzAKBggqhkjOPQQDAjB6MREwDwYDVQQDDAhJU0VOIEFD
STEPMA0GA1UECAwGRnJhbmNlMQswCQYDVQQGEwJGUjEpMCcGCSqGSIb3DQEJARYa
aHVnby5taWxsZXRAaXNlbi55bmNyZWEuZnIxDTALBgNVBAoMBElTRU4xDTALBgNV
BAsMBElTRU4wHhcNMjMwNDI4MTMwMzQ5WhcNMjMwNzI3MTMwMzQ5WjA6MQ0wCwYD
VQQDDARodWdvMSkwJwYJKoZIhvcNAQkBFhpodWdvLm1pbGxldEBpc2VuLnluY3Jl
YS5mcjB2MBAGByqGSM49AgEGBSuBBAAiA2IABJ96HWBQx/B2c0lHRfJ7QQgMearC
Qp6jrTsqov2UBcKL/RQIjiiGHFibIiJGC2Iu81VG8XWe8eOHA+oWF94+ReBoTu02
Y/QyuJvV6HbNv4Dr9ROO/mJku7gyPaocQD4WWqNQME4wDAYDVR0TAQH/BAIwADAd
BgNVHQ4EFgQUHBnubiVt4xZDr9wiAPn5sBFJn2YwHwYDVR0jBBgwFoAUrcr8niTZ
Hd6anryDHvFsG5aIXq8wCgYIKoZIzj0EAwIDZwAwZAIwYsDDOy87NdgiXSsK217K
SuvNyQNmYIVjDbpPsn9BHVqmz7oM0Dc6T/sPa540rIAqAjBOW2b8qgWCPKRpY+jr
z+uRkA3gHVdqO2jZnBeFIOcEY0wcW9bw3ZvLDmx4xn1umEM=
-----END CERTIFICATE-----
