Certificate:
    Data:
        Version: 3 (0x2)
        Serial Number: 2 (0x2)
        Signature Algorithm: ecdsa-with-SHA256
        Issuer: CN=ISEN ACI, ST=France, C=FR/emailAddress=hugo.millet@isen.yncrea.fr, O=ISEN, OU=ISEN
        Validity
            Not Before: Apr 23 08:46:25 2023 GMT
            Not After : Jul 22 08:46:25 2023 GMT
        Subject: CN=hugo/emailAddress=hugo.millet@isen.yncrea.fr
        Subject Public Key Info:
            Public Key Algorithm: id-ecPublicKey
                Public-Key: (384 bit)
                pub:
                    04:9f:7a:1d:60:50:c7:f0:76:73:49:47:45:f2:7b:
                    41:08:0c:79:aa:c2:42:9e:a3:ad:3b:2a:a2:fd:94:
                    05:c2:8b:fd:14:08:8e:28:86:1c:58:9b:22:22:46:
                    0b:62:2e:f3:55:46:f1:75:9e:f1:e3:87:03:ea:16:
                    17:de:3e:45:e0:68:4e:ed:36:63:f4:32:b8:9b:d5:
                    e8:76:cd:bf:80:eb:f5:13:8e:fe:62:64:bb:b8:32:
                    3d:aa:1c:40:3e:16:5a
                ASN1 OID: secp384r1
                NIST CURVE: P-384
        X509v3 extensions:
            X509v3 Basic Constraints: critical
                CA:FALSE, pathlen:1
            X509v3 Subject Key Identifier: 
                1C:19:EE:6E:25:6D:E3:16:43:AF:DC:22:00:F9:F9:B0:11:49:9F:66
            X509v3 Authority Key Identifier: 
                C4:5A:3A:1D:2A:60:D2:09:DF:3D:20:66:FA:42:15:00:04:F5:17:03
    Signature Algorithm: ecdsa-with-SHA256
    Signature Value:
        30:64:02:30:5e:e3:80:d7:a6:2c:73:7f:98:86:38:c6:7d:8b:
        9c:7c:a1:75:8e:6f:a7:29:37:74:a7:bf:de:06:0c:d9:77:12:
        76:9b:7b:20:10:fe:90:55:72:6e:5d:f4:67:44:32:a0:02:30:
        3e:f9:52:9b:ff:99:f8:48:58:96:d0:96:93:18:e3:19:52:b8:
        51:6c:e6:e1:4f:84:5f:bc:d0:49:b2:5e:65:3d:25:1d:18:71:
        b0:ef:b0:1f:7e:bf:4b:59:81:42:25:52
-----BEGIN CERTIFICATE-----
MIICMjCCAbmgAwIBAgIBAjAKBggqhkjOPQQDAjB6MREwDwYDVQQDDAhJU0VOIEFD
STEPMA0GA1UECAwGRnJhbmNlMQswCQYDVQQGEwJGUjEpMCcGCSqGSIb3DQEJARYa
aHVnby5taWxsZXRAaXNlbi55bmNyZWEuZnIxDTALBgNVBAoMBElTRU4xDTALBgNV
BAsMBElTRU4wHhcNMjMwNDIzMDg0NjI1WhcNMjMwNzIyMDg0NjI1WjA6MQ0wCwYD
VQQDDARodWdvMSkwJwYJKoZIhvcNAQkBFhpodWdvLm1pbGxldEBpc2VuLnluY3Jl
YS5mcjB2MBAGByqGSM49AgEGBSuBBAAiA2IABJ96HWBQx/B2c0lHRfJ7QQgMearC
Qp6jrTsqov2UBcKL/RQIjiiGHFibIiJGC2Iu81VG8XWe8eOHA+oWF94+ReBoTu02
Y/QyuJvV6HbNv4Dr9ROO/mJku7gyPaocQD4WWqNTMFEwDwYDVR0TAQH/BAUwAwIB
ATAdBgNVHQ4EFgQUHBnubiVt4xZDr9wiAPn5sBFJn2YwHwYDVR0jBBgwFoAUxFo6
HSpg0gnfPSBm+kIVAAT1FwMwCgYIKoZIzj0EAwIDZwAwZAIwXuOA16Ysc3+YhjjG
fYucfKF1jm+nKTd0p7/eBgzZdxJ2m3sgEP6QVXJuXfRnRDKgAjA++VKb/5n4SFiW
0JaTGOMZUrhRbObhT4RfvNBJsl5lPSUdGHGw77Affr9LWYFCJVI=
-----END CERTIFICATE-----
