Certificate:
    Data:
        Version: 3 (0x2)
        Serial Number: 2 (0x2)
        Signature Algorithm: ecdsa-with-SHA256
        Issuer: CN=ISEN ACI, ST=France, C=FR/emailAddress=hugo.millet@isen.yncrea.fr, O=ISEN, OU=ISEN
        Validity
            Not Before: Apr 23 18:24:41 2023 GMT
            Not After : Jul 22 18:24:41 2023 GMT
        Subject: CN=hugo/emailAddress=hugo.millet@isen.yncrea.fr
        Subject Public Key Info:
            Public Key Algorithm: id-ecPublicKey
                Public-Key: (384 bit)
                pub:
                    04:9f:7a:1d:60:50:c7:f0:76:73:49:47:45:f2:7b:
                    41:08:0c:79:aa:c2:42:9e:a3:ad:3b:2a:a2:fd:94:
                    05:c2:8b:fd:14:08:8e:28:86:1c:58:9b:22:22:46:
                    0b:62:2e:f3:55:46:f1:75:9e:f1:e3:87:03:ea:16:
                    17:de:3e:45:e0:68:4e:ed:36:63:f4:32:b8:9b:d5:
                    e8:76:cd:bf:80:eb:f5:13:8e:fe:62:64:bb:b8:32:
                    3d:aa:1c:40:3e:16:5a
                ASN1 OID: secp384r1
                NIST CURVE: P-384
        X509v3 extensions:
            X509v3 Basic Constraints: critical
                CA:FALSE
            X509v3 Subject Key Identifier: 
                1C:19:EE:6E:25:6D:E3:16:43:AF:DC:22:00:F9:F9:B0:11:49:9F:66
            X509v3 Authority Key Identifier: 
                00:94:B3:48:1A:4B:A8:C1:C1:4A:A3:D7:AD:B5:C9:8B:7B:8F:59:AF
    Signature Algorithm: ecdsa-with-SHA256
    Signature Value:
        30:65:02:31:00:8b:a0:34:8f:fd:d7:da:24:d5:77:f1:93:14:
        5b:92:d0:7b:dc:47:13:0f:0d:a0:21:9b:e3:5b:7c:33:d9:5d:
        43:47:23:3d:c1:1f:65:fa:74:bd:9d:7f:a3:38:b5:32:56:02:
        30:1a:cc:3d:69:70:33:ba:f8:94:f0:61:77:8d:80:73:a6:83:
        f3:c7:27:a3:a9:bd:9c:58:05:52:bd:97:e2:44:60:8f:96:4f:
        d6:ff:6b:2e:90:7e:4e:4a:e5:ad:6a:8f:37
-----BEGIN CERTIFICATE-----
MIICMDCCAbagAwIBAgIBAjAKBggqhkjOPQQDAjB6MREwDwYDVQQDDAhJU0VOIEFD
STEPMA0GA1UECAwGRnJhbmNlMQswCQYDVQQGEwJGUjEpMCcGCSqGSIb3DQEJARYa
aHVnby5taWxsZXRAaXNlbi55bmNyZWEuZnIxDTALBgNVBAoMBElTRU4xDTALBgNV
BAsMBElTRU4wHhcNMjMwNDIzMTgyNDQxWhcNMjMwNzIyMTgyNDQxWjA6MQ0wCwYD
VQQDDARodWdvMSkwJwYJKoZIhvcNAQkBFhpodWdvLm1pbGxldEBpc2VuLnluY3Jl
YS5mcjB2MBAGByqGSM49AgEGBSuBBAAiA2IABJ96HWBQx/B2c0lHRfJ7QQgMearC
Qp6jrTsqov2UBcKL/RQIjiiGHFibIiJGC2Iu81VG8XWe8eOHA+oWF94+ReBoTu02
Y/QyuJvV6HbNv4Dr9ROO/mJku7gyPaocQD4WWqNQME4wDAYDVR0TAQH/BAIwADAd
BgNVHQ4EFgQUHBnubiVt4xZDr9wiAPn5sBFJn2YwHwYDVR0jBBgwFoAUAJSzSBpL
qMHBSqPXrbXJi3uPWa8wCgYIKoZIzj0EAwIDaAAwZQIxAIugNI/919ok1XfxkxRb
ktB73EcTDw2gIZvjW3wz2V1DRyM9wR9l+nS9nX+jOLUyVgIwGsw9aXAzuviU8GF3
jYBzpoPzxyejqb2cWAVSvZfiRGCPlk/W/2sukH5OSuWtao83
-----END CERTIFICATE-----
