Certificate:
    Data:
        Version: 3 (0x2)
        Serial Number: 2 (0x2)
        Signature Algorithm: ecdsa-with-SHA256
        Issuer: CN=ISEN ACI, ST=France, C=FR/emailAddress=hugo.millet@isen.yncrea.fr, O=ISEN, OU=ISEN
        Validity
            Not Before: Apr 24 12:39:51 2023 GMT
            Not After : Jul 23 12:39:51 2023 GMT
        Subject: CN=hugo/emailAddress=hugo.millet@isen.yncrea.fr
        Subject Public Key Info:
            Public Key Algorithm: id-ecPublicKey
                Public-Key: (384 bit)
                pub:
                    04:9f:7a:1d:60:50:c7:f0:76:73:49:47:45:f2:7b:
                    41:08:0c:79:aa:c2:42:9e:a3:ad:3b:2a:a2:fd:94:
                    05:c2:8b:fd:14:08:8e:28:86:1c:58:9b:22:22:46:
                    0b:62:2e:f3:55:46:f1:75:9e:f1:e3:87:03:ea:16:
                    17:de:3e:45:e0:68:4e:ed:36:63:f4:32:b8:9b:d5:
                    e8:76:cd:bf:80:eb:f5:13:8e:fe:62:64:bb:b8:32:
                    3d:aa:1c:40:3e:16:5a
                ASN1 OID: secp384r1
                NIST CURVE: P-384
        X509v3 extensions:
            X509v3 Basic Constraints: critical
                CA:FALSE
            X509v3 Subject Key Identifier: 
                1C:19:EE:6E:25:6D:E3:16:43:AF:DC:22:00:F9:F9:B0:11:49:9F:66
            X509v3 Authority Key Identifier: 
                56:17:74:01:9E:ED:99:4D:1E:B7:53:CC:42:75:98:8C:1B:E7:5C:64
    Signature Algorithm: ecdsa-with-SHA256
    Signature Value:
        30:64:02:30:00:cd:b4:28:58:73:41:f5:3c:72:02:9f:b7:cc:
        e8:87:c5:4c:d4:27:80:fb:62:01:0d:4c:48:c9:01:4c:67:0a:
        ee:67:36:57:83:a8:e1:6f:b5:8f:f4:17:7f:65:f7:21:02:30:
        3e:3b:88:7a:fe:5b:bb:3a:8d:d6:29:dc:a2:09:a1:9f:d3:39:
        cd:7b:05:53:d6:3c:d0:7e:c4:c1:df:67:fe:3f:71:a1:e9:fc:
        ac:f6:a6:e2:73:b4:f3:00:6d:f8:64:81
-----BEGIN CERTIFICATE-----
MIICLzCCAbagAwIBAgIBAjAKBggqhkjOPQQDAjB6MREwDwYDVQQDDAhJU0VOIEFD
STEPMA0GA1UECAwGRnJhbmNlMQswCQYDVQQGEwJGUjEpMCcGCSqGSIb3DQEJARYa
aHVnby5taWxsZXRAaXNlbi55bmNyZWEuZnIxDTALBgNVBAoMBElTRU4xDTALBgNV
BAsMBElTRU4wHhcNMjMwNDI0MTIzOTUxWhcNMjMwNzIzMTIzOTUxWjA6MQ0wCwYD
VQQDDARodWdvMSkwJwYJKoZIhvcNAQkBFhpodWdvLm1pbGxldEBpc2VuLnluY3Jl
YS5mcjB2MBAGByqGSM49AgEGBSuBBAAiA2IABJ96HWBQx/B2c0lHRfJ7QQgMearC
Qp6jrTsqov2UBcKL/RQIjiiGHFibIiJGC2Iu81VG8XWe8eOHA+oWF94+ReBoTu02
Y/QyuJvV6HbNv4Dr9ROO/mJku7gyPaocQD4WWqNQME4wDAYDVR0TAQH/BAIwADAd
BgNVHQ4EFgQUHBnubiVt4xZDr9wiAPn5sBFJn2YwHwYDVR0jBBgwFoAUVhd0AZ7t
mU0et1PMQnWYjBvnXGQwCgYIKoZIzj0EAwIDZwAwZAIwAM20KFhzQfU8cgKft8zo
h8VM1CeA+2IBDUxIyQFMZwruZzZXg6jhb7WP9Bd/ZfchAjA+O4h6/lu7Oo3WKdyi
CaGf0znNewVT1jzQfsTB32f+P3Gh6fys9qbic7TzAG34ZIE=
-----END CERTIFICATE-----
