Certificate:
    Data:
        Version: 3 (0x2)
        Serial Number: 2 (0x2)
        Signature Algorithm: ecdsa-with-SHA256
        Issuer: CN=ISEN ACI, ST=France, C=FR/emailAddress=hugo.millet@isen.yncrea.fr, O=ISEN, OU=ISEN
        Validity
            Not Before: Apr 25 17:45:57 2023 GMT
            Not After : Jul 24 17:45:57 2023 GMT
        Subject: CN=hugo/emailAddress=hugo.millet@isen.yncrea.fr
        Subject Public Key Info:
            Public Key Algorithm: id-ecPublicKey
                Public-Key: (384 bit)
                pub:
                    04:9f:7a:1d:60:50:c7:f0:76:73:49:47:45:f2:7b:
                    41:08:0c:79:aa:c2:42:9e:a3:ad:3b:2a:a2:fd:94:
                    05:c2:8b:fd:14:08:8e:28:86:1c:58:9b:22:22:46:
                    0b:62:2e:f3:55:46:f1:75:9e:f1:e3:87:03:ea:16:
                    17:de:3e:45:e0:68:4e:ed:36:63:f4:32:b8:9b:d5:
                    e8:76:cd:bf:80:eb:f5:13:8e:fe:62:64:bb:b8:32:
                    3d:aa:1c:40:3e:16:5a
                ASN1 OID: secp384r1
                NIST CURVE: P-384
        X509v3 extensions:
            X509v3 Basic Constraints: critical
                CA:FALSE
            X509v3 Subject Key Identifier: 
                1C:19:EE:6E:25:6D:E3:16:43:AF:DC:22:00:F9:F9:B0:11:49:9F:66
            X509v3 Authority Key Identifier: 
                A7:3F:E2:AF:E8:CB:BF:F0:A3:26:B7:4E:5E:E7:64:0F:34:05:DF:41
    Signature Algorithm: ecdsa-with-SHA256
    Signature Value:
        30:66:02:31:00:be:fc:be:8f:91:a2:5c:58:67:64:7c:27:e6:
        3a:e6:ea:b1:62:e8:3b:87:07:df:ed:1a:f0:ad:19:ae:58:fe:
        e8:52:1d:f4:20:0c:9a:a8:81:fb:03:ae:6d:f5:1a:18:f3:02:
        31:00:db:06:24:fd:0f:60:44:36:24:71:7e:a1:34:26:72:7a:
        28:a1:14:45:39:36:44:75:3d:c9:c8:7b:41:4e:f4:f3:cb:c6:
        c8:12:16:65:e0:9f:49:e6:80:1e:06:fe:a2:cd
-----BEGIN CERTIFICATE-----
MIICMTCCAbagAwIBAgIBAjAKBggqhkjOPQQDAjB6MREwDwYDVQQDDAhJU0VOIEFD
STEPMA0GA1UECAwGRnJhbmNlMQswCQYDVQQGEwJGUjEpMCcGCSqGSIb3DQEJARYa
aHVnby5taWxsZXRAaXNlbi55bmNyZWEuZnIxDTALBgNVBAoMBElTRU4xDTALBgNV
BAsMBElTRU4wHhcNMjMwNDI1MTc0NTU3WhcNMjMwNzI0MTc0NTU3WjA6MQ0wCwYD
VQQDDARodWdvMSkwJwYJKoZIhvcNAQkBFhpodWdvLm1pbGxldEBpc2VuLnluY3Jl
YS5mcjB2MBAGByqGSM49AgEGBSuBBAAiA2IABJ96HWBQx/B2c0lHRfJ7QQgMearC
Qp6jrTsqov2UBcKL/RQIjiiGHFibIiJGC2Iu81VG8XWe8eOHA+oWF94+ReBoTu02
Y/QyuJvV6HbNv4Dr9ROO/mJku7gyPaocQD4WWqNQME4wDAYDVR0TAQH/BAIwADAd
BgNVHQ4EFgQUHBnubiVt4xZDr9wiAPn5sBFJn2YwHwYDVR0jBBgwFoAUpz/ir+jL
v/CjJrdOXudkDzQF30EwCgYIKoZIzj0EAwIDaQAwZgIxAL78vo+RolxYZ2R8J+Y6
5uqxYug7hwff7RrwrRmuWP7oUh30IAyaqIH7A65t9RoY8wIxANsGJP0PYEQ2JHF+
oTQmcnoooRRFOTZEdT3JyHtBTvTzy8bIEhZl4J9J5oAeBv6izQ==
-----END CERTIFICATE-----
