Certificate:
    Data:
        Version: 3 (0x2)
        Serial Number: 3 (0x3)
        Signature Algorithm: ecdsa-with-SHA256
        Issuer: CN=ISEN ACI, ST=France, C=FR/emailAddress=hugo.millet@isen.yncrea.fr, O=ISEN, OU=ISEN
        Validity
            Not Before: Apr 26 15:32:06 2023 GMT
            Not After : Jul 25 15:32:06 2023 GMT
        Subject: CN=hugo/emailAddress=hugo.millet@isen.yncrea.fr
        Subject Public Key Info:
            Public Key Algorithm: id-ecPublicKey
                Public-Key: (384 bit)
                pub:
                    04:9f:7a:1d:60:50:c7:f0:76:73:49:47:45:f2:7b:
                    41:08:0c:79:aa:c2:42:9e:a3:ad:3b:2a:a2:fd:94:
                    05:c2:8b:fd:14:08:8e:28:86:1c:58:9b:22:22:46:
                    0b:62:2e:f3:55:46:f1:75:9e:f1:e3:87:03:ea:16:
                    17:de:3e:45:e0:68:4e:ed:36:63:f4:32:b8:9b:d5:
                    e8:76:cd:bf:80:eb:f5:13:8e:fe:62:64:bb:b8:32:
                    3d:aa:1c:40:3e:16:5a
                ASN1 OID: secp384r1
                NIST CURVE: P-384
        X509v3 extensions:
            X509v3 Basic Constraints: critical
                CA:FALSE
            X509v3 Subject Key Identifier: 
                1C:19:EE:6E:25:6D:E3:16:43:AF:DC:22:00:F9:F9:B0:11:49:9F:66
            X509v3 Authority Key Identifier: 
                5C:03:BF:EA:E6:88:7E:55:1A:6F:CA:47:33:BF:63:42:37:D8:F3:AE
    Signature Algorithm: ecdsa-with-SHA256
    Signature Value:
        30:66:02:31:00:da:55:f7:68:d1:a8:f8:70:7c:c9:df:5f:07:
        b2:66:1f:ba:4e:e5:53:99:aa:f3:6a:e4:e9:8e:6e:91:32:88:
        04:7b:8b:1b:fa:ca:72:79:f2:99:d9:e3:db:8d:20:d5:38:02:
        31:00:b5:00:ae:7a:df:01:16:98:a4:bb:e6:aa:ab:43:7e:f7:
        42:ef:b6:92:b3:b7:9e:85:a3:19:3b:68:63:36:6d:78:74:a7:
        e6:6a:99:8d:fd:2f:9d:da:a0:5c:1c:8c:23:ce
-----BEGIN CERTIFICATE-----
MIICMTCCAbagAwIBAgIBAzAKBggqhkjOPQQDAjB6MREwDwYDVQQDDAhJU0VOIEFD
STEPMA0GA1UECAwGRnJhbmNlMQswCQYDVQQGEwJGUjEpMCcGCSqGSIb3DQEJARYa
aHVnby5taWxsZXRAaXNlbi55bmNyZWEuZnIxDTALBgNVBAoMBElTRU4xDTALBgNV
BAsMBElTRU4wHhcNMjMwNDI2MTUzMjA2WhcNMjMwNzI1MTUzMjA2WjA6MQ0wCwYD
VQQDDARodWdvMSkwJwYJKoZIhvcNAQkBFhpodWdvLm1pbGxldEBpc2VuLnluY3Jl
YS5mcjB2MBAGByqGSM49AgEGBSuBBAAiA2IABJ96HWBQx/B2c0lHRfJ7QQgMearC
Qp6jrTsqov2UBcKL/RQIjiiGHFibIiJGC2Iu81VG8XWe8eOHA+oWF94+ReBoTu02
Y/QyuJvV6HbNv4Dr9ROO/mJku7gyPaocQD4WWqNQME4wDAYDVR0TAQH/BAIwADAd
BgNVHQ4EFgQUHBnubiVt4xZDr9wiAPn5sBFJn2YwHwYDVR0jBBgwFoAUXAO/6uaI
flUab8pHM79jQjfY864wCgYIKoZIzj0EAwIDaQAwZgIxANpV92jRqPhwfMnfXwey
Zh+6TuVTmarzauTpjm6RMogEe4sb+spyefKZ2ePbjSDVOAIxALUArnrfARaYpLvm
qqtDfvdC77aSs7eehaMZO2hjNm14dKfmapmN/S+d2qBcHIwjzg==
-----END CERTIFICATE-----
