Certificate:
    Data:
        Version: 3 (0x2)
        Serial Number: 2 (0x2)
        Signature Algorithm: ecdsa-with-SHA256
        Issuer: CN=ISEN ACI, ST=France, C=FR/emailAddress=hugo.millet@isen.yncrea.fr, O=ISEN, OU=ISEN
        Validity
            Not Before: Apr 24 12:53:19 2023 GMT
            Not After : Jul 23 12:53:19 2023 GMT
        Subject: CN=hugo/emailAddress=hugo.millet@isen.yncrea.fr
        Subject Public Key Info:
            Public Key Algorithm: id-ecPublicKey
                Public-Key: (384 bit)
                pub:
                    04:9f:7a:1d:60:50:c7:f0:76:73:49:47:45:f2:7b:
                    41:08:0c:79:aa:c2:42:9e:a3:ad:3b:2a:a2:fd:94:
                    05:c2:8b:fd:14:08:8e:28:86:1c:58:9b:22:22:46:
                    0b:62:2e:f3:55:46:f1:75:9e:f1:e3:87:03:ea:16:
                    17:de:3e:45:e0:68:4e:ed:36:63:f4:32:b8:9b:d5:
                    e8:76:cd:bf:80:eb:f5:13:8e:fe:62:64:bb:b8:32:
                    3d:aa:1c:40:3e:16:5a
                ASN1 OID: secp384r1
                NIST CURVE: P-384
        X509v3 extensions:
            X509v3 Basic Constraints: critical
                CA:FALSE
            X509v3 Subject Key Identifier: 
                1C:19:EE:6E:25:6D:E3:16:43:AF:DC:22:00:F9:F9:B0:11:49:9F:66
            X509v3 Authority Key Identifier: 
                86:3F:F3:32:45:31:9D:A9:C1:1B:B0:8D:A4:39:16:12:68:F1:3E:3F
    Signature Algorithm: ecdsa-with-SHA256
    Signature Value:
        30:66:02:31:00:85:a2:f7:b7:d0:77:0b:e6:a2:f3:8d:16:3b:
        f7:fb:71:f8:5d:f7:9f:e6:89:04:c7:81:09:17:9e:85:46:57:
        26:01:f5:d3:f6:ca:b6:61:e7:66:8d:a5:1d:bc:b7:f5:ac:02:
        31:00:ee:f9:16:88:d8:62:d0:a3:ee:10:a7:cc:57:73:26:99:
        7c:5b:ea:a2:fc:3c:48:bb:d2:f0:8c:71:e7:c1:cc:01:ac:90:
        c4:32:fb:64:73:c5:7b:67:f1:86:ff:02:e9:27
-----BEGIN CERTIFICATE-----
MIICMTCCAbagAwIBAgIBAjAKBggqhkjOPQQDAjB6MREwDwYDVQQDDAhJU0VOIEFD
STEPMA0GA1UECAwGRnJhbmNlMQswCQYDVQQGEwJGUjEpMCcGCSqGSIb3DQEJARYa
aHVnby5taWxsZXRAaXNlbi55bmNyZWEuZnIxDTALBgNVBAoMBElTRU4xDTALBgNV
BAsMBElTRU4wHhcNMjMwNDI0MTI1MzE5WhcNMjMwNzIzMTI1MzE5WjA6MQ0wCwYD
VQQDDARodWdvMSkwJwYJKoZIhvcNAQkBFhpodWdvLm1pbGxldEBpc2VuLnluY3Jl
YS5mcjB2MBAGByqGSM49AgEGBSuBBAAiA2IABJ96HWBQx/B2c0lHRfJ7QQgMearC
Qp6jrTsqov2UBcKL/RQIjiiGHFibIiJGC2Iu81VG8XWe8eOHA+oWF94+ReBoTu02
Y/QyuJvV6HbNv4Dr9ROO/mJku7gyPaocQD4WWqNQME4wDAYDVR0TAQH/BAIwADAd
BgNVHQ4EFgQUHBnubiVt4xZDr9wiAPn5sBFJn2YwHwYDVR0jBBgwFoAUhj/zMkUx
nanBG7CNpDkWEmjxPj8wCgYIKoZIzj0EAwIDaQAwZgIxAIWi97fQdwvmovONFjv3
+3H4Xfef5okEx4EJF56FRlcmAfXT9sq2YedmjaUdvLf1rAIxAO75FojYYtCj7hCn
zFdzJpl8W+qi/DxIu9LwjHHnwcwBrJDEMvtkc8V7Z/GG/wLpJw==
-----END CERTIFICATE-----
