Certificate:
    Data:
        Version: 3 (0x2)
        Serial Number: 2 (0x2)
        Signature Algorithm: ecdsa-with-SHA256
        Issuer: CN=ISEN ACI, ST=France, C=FR/emailAddress=hugo.millet@isen.yncrea.fr, O=ISEN, OU=ISEN
        Validity
            Not Before: Apr 20 15:21:54 2023 GMT
            Not After : Jul 19 15:21:54 2023 GMT
        Subject: CN=hugo/emailAddress=hugo.millet@isen.yncrea.fr
        Subject Public Key Info:
            Public Key Algorithm: id-ecPublicKey
                Public-Key: (384 bit)
                pub:
                    04:9f:7a:1d:60:50:c7:f0:76:73:49:47:45:f2:7b:
                    41:08:0c:79:aa:c2:42:9e:a3:ad:3b:2a:a2:fd:94:
                    05:c2:8b:fd:14:08:8e:28:86:1c:58:9b:22:22:46:
                    0b:62:2e:f3:55:46:f1:75:9e:f1:e3:87:03:ea:16:
                    17:de:3e:45:e0:68:4e:ed:36:63:f4:32:b8:9b:d5:
                    e8:76:cd:bf:80:eb:f5:13:8e:fe:62:64:bb:b8:32:
                    3d:aa:1c:40:3e:16:5a
                ASN1 OID: secp384r1
                NIST CURVE: P-384
        X509v3 extensions:
            X509v3 Basic Constraints: critical
                CA:FALSE
            X509v3 Subject Key Identifier: 
                1C:19:EE:6E:25:6D:E3:16:43:AF:DC:22:00:F9:F9:B0:11:49:9F:66
            X509v3 Authority Key Identifier: 
                CF:91:D2:23:F1:C1:80:57:7D:37:0A:09:D9:45:6E:48:B3:33:7D:14
    Signature Algorithm: ecdsa-with-SHA256
    Signature Value:
        30:65:02:30:5f:0c:fa:ff:41:a9:87:49:11:f9:e8:27:83:2b:
        ee:93:be:09:5b:d2:6e:8f:ae:6e:08:4b:c0:a4:3c:b1:7e:4e:
        53:77:ae:44:39:a8:48:5e:64:55:a4:87:8e:fe:44:31:02:31:
        00:b4:0b:2f:0b:b2:60:ac:4f:c0:dc:18:f6:bb:11:93:01:09:
        df:4a:a6:aa:c6:d0:bf:54:ef:b5:3f:8a:5f:af:34:49:c9:08:
        c0:d3:ab:43:6e:fd:a8:7d:dc:3e:dc:6c:57
-----BEGIN CERTIFICATE-----
MIICMDCCAbagAwIBAgIBAjAKBggqhkjOPQQDAjB6MREwDwYDVQQDDAhJU0VOIEFD
STEPMA0GA1UECAwGRnJhbmNlMQswCQYDVQQGEwJGUjEpMCcGCSqGSIb3DQEJARYa
aHVnby5taWxsZXRAaXNlbi55bmNyZWEuZnIxDTALBgNVBAoMBElTRU4xDTALBgNV
BAsMBElTRU4wHhcNMjMwNDIwMTUyMTU0WhcNMjMwNzE5MTUyMTU0WjA6MQ0wCwYD
VQQDDARodWdvMSkwJwYJKoZIhvcNAQkBFhpodWdvLm1pbGxldEBpc2VuLnluY3Jl
YS5mcjB2MBAGByqGSM49AgEGBSuBBAAiA2IABJ96HWBQx/B2c0lHRfJ7QQgMearC
Qp6jrTsqov2UBcKL/RQIjiiGHFibIiJGC2Iu81VG8XWe8eOHA+oWF94+ReBoTu02
Y/QyuJvV6HbNv4Dr9ROO/mJku7gyPaocQD4WWqNQME4wDAYDVR0TAQH/BAIwADAd
BgNVHQ4EFgQUHBnubiVt4xZDr9wiAPn5sBFJn2YwHwYDVR0jBBgwFoAUz5HSI/HB
gFd9NwoJ2UVuSLMzfRQwCgYIKoZIzj0EAwIDaAAwZQIwXwz6/0Gph0kR+egngyvu
k74JW9Juj65uCEvApDyxfk5Td65EOahIXmRVpIeO/kQxAjEAtAsvC7JgrE/A3Bj2
uxGTAQnfSqaqxtC/VO+1P4pfrzRJyQjA06tDbv2ofdw+3GxX
-----END CERTIFICATE-----
