Certificate:
    Data:
        Version: 3 (0x2)
        Serial Number: 2 (0x2)
        Signature Algorithm: ecdsa-with-SHA256
        Issuer: CN=ISEN ACI, ST=France, C=FR/emailAddress=hugo.millet@isen.yncrea.fr, O=ISEN, OU=ISEN
        Validity
            Not Before: Apr 23 08:36:38 2023 GMT
            Not After : Jul 22 08:36:38 2023 GMT
        Subject: CN=hugo/emailAddress=hugo.millet@isen.yncrea.fr
        Subject Public Key Info:
            Public Key Algorithm: id-ecPublicKey
                Public-Key: (384 bit)
                pub:
                    04:9f:7a:1d:60:50:c7:f0:76:73:49:47:45:f2:7b:
                    41:08:0c:79:aa:c2:42:9e:a3:ad:3b:2a:a2:fd:94:
                    05:c2:8b:fd:14:08:8e:28:86:1c:58:9b:22:22:46:
                    0b:62:2e:f3:55:46:f1:75:9e:f1:e3:87:03:ea:16:
                    17:de:3e:45:e0:68:4e:ed:36:63:f4:32:b8:9b:d5:
                    e8:76:cd:bf:80:eb:f5:13:8e:fe:62:64:bb:b8:32:
                    3d:aa:1c:40:3e:16:5a
                ASN1 OID: secp384r1
                NIST CURVE: P-384
        X509v3 extensions:
            X509v3 Basic Constraints: critical
                CA:FALSE, pathlen:1
            X509v3 Subject Key Identifier: 
                1C:19:EE:6E:25:6D:E3:16:43:AF:DC:22:00:F9:F9:B0:11:49:9F:66
            X509v3 Authority Key Identifier: 
                E3:1D:C3:59:3B:F2:05:5B:54:46:02:56:57:FE:78:3F:27:69:5D:10
    Signature Algorithm: ecdsa-with-SHA256
    Signature Value:
        30:66:02:31:00:e0:67:24:fc:3b:f6:e1:0a:98:c8:68:7d:fe:
        1a:4a:5a:d9:ad:2a:39:63:8e:00:c0:5d:37:88:68:96:fc:bc:
        17:7e:26:c6:48:1d:8c:4d:33:f0:48:f1:f4:d8:60:54:80:02:
        31:00:ff:b0:b8:31:10:73:36:d5:08:ba:86:5d:90:3f:1b:82:
        39:9d:68:a3:05:3b:8a:9d:6f:41:43:19:cd:23:c0:65:a1:bb:
        e2:5c:8e:67:07:cc:d7:fb:38:8b:69:e7:4a:96
-----BEGIN CERTIFICATE-----
MIICNDCCAbmgAwIBAgIBAjAKBggqhkjOPQQDAjB6MREwDwYDVQQDDAhJU0VOIEFD
STEPMA0GA1UECAwGRnJhbmNlMQswCQYDVQQGEwJGUjEpMCcGCSqGSIb3DQEJARYa
aHVnby5taWxsZXRAaXNlbi55bmNyZWEuZnIxDTALBgNVBAoMBElTRU4xDTALBgNV
BAsMBElTRU4wHhcNMjMwNDIzMDgzNjM4WhcNMjMwNzIyMDgzNjM4WjA6MQ0wCwYD
VQQDDARodWdvMSkwJwYJKoZIhvcNAQkBFhpodWdvLm1pbGxldEBpc2VuLnluY3Jl
YS5mcjB2MBAGByqGSM49AgEGBSuBBAAiA2IABJ96HWBQx/B2c0lHRfJ7QQgMearC
Qp6jrTsqov2UBcKL/RQIjiiGHFibIiJGC2Iu81VG8XWe8eOHA+oWF94+ReBoTu02
Y/QyuJvV6HbNv4Dr9ROO/mJku7gyPaocQD4WWqNTMFEwDwYDVR0TAQH/BAUwAwIB
ATAdBgNVHQ4EFgQUHBnubiVt4xZDr9wiAPn5sBFJn2YwHwYDVR0jBBgwFoAU4x3D
WTvyBVtURgJWV/54PydpXRAwCgYIKoZIzj0EAwIDaQAwZgIxAOBnJPw79uEKmMho
ff4aSlrZrSo5Y44AwF03iGiW/LwXfibGSB2MTTPwSPH02GBUgAIxAP+wuDEQczbV
CLqGXZA/G4I5nWijBTuKnW9BQxnNI8BlobviXI5nB8zX+ziLaedKlg==
-----END CERTIFICATE-----
