Certificate:
    Data:
        Version: 3 (0x2)
        Serial Number: 3 (0x3)
        Signature Algorithm: ecdsa-with-SHA256
        Issuer: CN=ISEN ACI, ST=France, C=FR/emailAddress=hugo.millet@isen.yncrea.fr, O=ISEN, OU=ISEN
        Validity
            Not Before: Apr 30 12:05:22 2023 GMT
            Not After : Jul 29 12:05:22 2023 GMT
        Subject: CN=hugo/emailAddress=hugo.millet@isen.yncrea.fr
        Subject Public Key Info:
            Public Key Algorithm: id-ecPublicKey
                Public-Key: (384 bit)
                pub:
                    04:9f:7a:1d:60:50:c7:f0:76:73:49:47:45:f2:7b:
                    41:08:0c:79:aa:c2:42:9e:a3:ad:3b:2a:a2:fd:94:
                    05:c2:8b:fd:14:08:8e:28:86:1c:58:9b:22:22:46:
                    0b:62:2e:f3:55:46:f1:75:9e:f1:e3:87:03:ea:16:
                    17:de:3e:45:e0:68:4e:ed:36:63:f4:32:b8:9b:d5:
                    e8:76:cd:bf:80:eb:f5:13:8e:fe:62:64:bb:b8:32:
                    3d:aa:1c:40:3e:16:5a
                ASN1 OID: secp384r1
                NIST CURVE: P-384
        X509v3 extensions:
            X509v3 Basic Constraints: critical
                CA:FALSE
            Authority Information Access: 
                OCSP - URI:http://127.0.0.1:8888
            X509v3 Subject Key Identifier: 
                1C:19:EE:6E:25:6D:E3:16:43:AF:DC:22:00:F9:F9:B0:11:49:9F:66
            X509v3 Authority Key Identifier: 
                7B:B7:23:42:1B:41:21:76:BF:22:AE:D4:58:44:59:E2:D7:08:45:37
    Signature Algorithm: ecdsa-with-SHA256
    Signature Value:
        30:65:02:30:1d:30:ea:04:2f:e5:d2:12:2a:3e:bc:2d:a3:63:
        bb:4a:6d:0e:ad:39:94:14:3d:e5:d1:d0:1e:ce:1f:00:f6:60:
        2a:fe:2b:e0:6e:a5:72:ad:63:2b:ba:9a:79:c8:ab:89:02:31:
        00:89:9d:8c:1a:31:93:fb:24:26:6f:65:1c:96:34:7c:20:bc:
        41:e0:b7:c1:cb:27:5d:fa:5b:38:ac:26:0a:f3:3f:f4:b8:03:
        09:c1:6a:c4:5b:97:2e:d3:ad:c8:5c:77:64
-----BEGIN CERTIFICATE-----
MIICZTCCAeugAwIBAgIBAzAKBggqhkjOPQQDAjB6MREwDwYDVQQDDAhJU0VOIEFD
STEPMA0GA1UECAwGRnJhbmNlMQswCQYDVQQGEwJGUjEpMCcGCSqGSIb3DQEJARYa
aHVnby5taWxsZXRAaXNlbi55bmNyZWEuZnIxDTALBgNVBAoMBElTRU4xDTALBgNV
BAsMBElTRU4wHhcNMjMwNDMwMTIwNTIyWhcNMjMwNzI5MTIwNTIyWjA6MQ0wCwYD
VQQDDARodWdvMSkwJwYJKoZIhvcNAQkBFhpodWdvLm1pbGxldEBpc2VuLnluY3Jl
YS5mcjB2MBAGByqGSM49AgEGBSuBBAAiA2IABJ96HWBQx/B2c0lHRfJ7QQgMearC
Qp6jrTsqov2UBcKL/RQIjiiGHFibIiJGC2Iu81VG8XWe8eOHA+oWF94+ReBoTu02
Y/QyuJvV6HbNv4Dr9ROO/mJku7gyPaocQD4WWqOBhDCBgTAMBgNVHRMBAf8EAjAA
MDEGCCsGAQUFBwEBBCUwIzAhBggrBgEFBQcwAYYVaHR0cDovLzEyNy4wLjAuMTo4
ODg4MB0GA1UdDgQWBBQcGe5uJW3jFkOv3CIA+fmwEUmfZjAfBgNVHSMEGDAWgBR7
tyNCG0Ehdr8irtRYRFni1whFNzAKBggqhkjOPQQDAgNoADBlAjAdMOoEL+XSEio+
vC2jY7tKbQ6tOZQUPeXR0B7OHwD2YCr+K+BupXKtYyu6mnnIq4kCMQCJnYwaMZP7
JCZvZRyWNHwgvEHgt8HLJ136WzisJgrzP/S4AwnBasRbly7Trchcd2Q=
-----END CERTIFICATE-----
