Certificate:
    Data:
        Version: 3 (0x2)
        Serial Number: 2 (0x2)
        Signature Algorithm: ecdsa-with-SHA256
        Issuer: CN=ISEN ACI, ST=France, C=FR/emailAddress=hugo.millet@isen.yncrea.fr, O=ISEN, OU=ISEN
        Validity
            Not Before: Apr 23 19:04:27 2023 GMT
            Not After : Jul 22 19:04:27 2023 GMT
        Subject: CN=hugo/emailAddress=hugo.millet@isen.yncrea.fr
        Subject Public Key Info:
            Public Key Algorithm: id-ecPublicKey
                Public-Key: (384 bit)
                pub:
                    04:9f:7a:1d:60:50:c7:f0:76:73:49:47:45:f2:7b:
                    41:08:0c:79:aa:c2:42:9e:a3:ad:3b:2a:a2:fd:94:
                    05:c2:8b:fd:14:08:8e:28:86:1c:58:9b:22:22:46:
                    0b:62:2e:f3:55:46:f1:75:9e:f1:e3:87:03:ea:16:
                    17:de:3e:45:e0:68:4e:ed:36:63:f4:32:b8:9b:d5:
                    e8:76:cd:bf:80:eb:f5:13:8e:fe:62:64:bb:b8:32:
                    3d:aa:1c:40:3e:16:5a
                ASN1 OID: secp384r1
                NIST CURVE: P-384
        X509v3 extensions:
            X509v3 Basic Constraints: critical
                CA:FALSE
            X509v3 Subject Key Identifier: 
                1C:19:EE:6E:25:6D:E3:16:43:AF:DC:22:00:F9:F9:B0:11:49:9F:66
            X509v3 Authority Key Identifier: 
                C3:0C:F6:37:3A:05:3A:23:91:CA:42:52:62:CD:D4:A9:1E:F5:4B:3C
    Signature Algorithm: ecdsa-with-SHA256
    Signature Value:
        30:65:02:31:00:81:5e:94:d1:04:a0:6f:2b:1d:4b:4c:25:ef:
        7f:ca:7d:66:da:23:0a:2c:fc:63:95:a6:7e:a9:e5:70:7f:b9:
        ea:01:aa:30:ff:42:0b:06:6d:19:08:2a:25:16:44:0e:0d:02:
        30:25:f3:bb:cb:f5:cf:df:71:3e:dc:6e:81:a4:c2:82:4d:92:
        69:1b:32:d7:85:69:b2:cf:dd:72:69:52:db:f1:26:fb:e5:ec:
        b5:f6:ed:e2:b4:2e:0a:e4:fd:fe:f2:37:0d
-----BEGIN CERTIFICATE-----
MIICMDCCAbagAwIBAgIBAjAKBggqhkjOPQQDAjB6MREwDwYDVQQDDAhJU0VOIEFD
STEPMA0GA1UECAwGRnJhbmNlMQswCQYDVQQGEwJGUjEpMCcGCSqGSIb3DQEJARYa
aHVnby5taWxsZXRAaXNlbi55bmNyZWEuZnIxDTALBgNVBAoMBElTRU4xDTALBgNV
BAsMBElTRU4wHhcNMjMwNDIzMTkwNDI3WhcNMjMwNzIyMTkwNDI3WjA6MQ0wCwYD
VQQDDARodWdvMSkwJwYJKoZIhvcNAQkBFhpodWdvLm1pbGxldEBpc2VuLnluY3Jl
YS5mcjB2MBAGByqGSM49AgEGBSuBBAAiA2IABJ96HWBQx/B2c0lHRfJ7QQgMearC
Qp6jrTsqov2UBcKL/RQIjiiGHFibIiJGC2Iu81VG8XWe8eOHA+oWF94+ReBoTu02
Y/QyuJvV6HbNv4Dr9ROO/mJku7gyPaocQD4WWqNQME4wDAYDVR0TAQH/BAIwADAd
BgNVHQ4EFgQUHBnubiVt4xZDr9wiAPn5sBFJn2YwHwYDVR0jBBgwFoAUwwz2NzoF
OiORykJSYs3UqR71SzwwCgYIKoZIzj0EAwIDaAAwZQIxAIFelNEEoG8rHUtMJe9/
yn1m2iMKLPxjlaZ+qeVwf7nqAaow/0ILBm0ZCColFkQODQIwJfO7y/XP33E+3G6B
pMKCTZJpGzLXhWmyz91yaVLb8Sb75ey19u3itC4K5P3+8jcN
-----END CERTIFICATE-----
