Certificate:
    Data:
        Version: 3 (0x2)
        Serial Number: 2 (0x2)
        Signature Algorithm: ecdsa-with-SHA256
        Issuer: CN=ISEN ACI, ST=France, C=FR/emailAddress=hugo.millet@isen.yncrea.fr, O=ISEN, OU=ISEN
        Validity
            Not Before: Apr 23 15:43:29 2023 GMT
            Not After : Jul 22 15:43:29 2023 GMT
        Subject: CN=hugo/emailAddress=hugo.millet@isen.yncrea.fr
        Subject Public Key Info:
            Public Key Algorithm: id-ecPublicKey
                Public-Key: (384 bit)
                pub:
                    04:9f:7a:1d:60:50:c7:f0:76:73:49:47:45:f2:7b:
                    41:08:0c:79:aa:c2:42:9e:a3:ad:3b:2a:a2:fd:94:
                    05:c2:8b:fd:14:08:8e:28:86:1c:58:9b:22:22:46:
                    0b:62:2e:f3:55:46:f1:75:9e:f1:e3:87:03:ea:16:
                    17:de:3e:45:e0:68:4e:ed:36:63:f4:32:b8:9b:d5:
                    e8:76:cd:bf:80:eb:f5:13:8e:fe:62:64:bb:b8:32:
                    3d:aa:1c:40:3e:16:5a
                ASN1 OID: secp384r1
                NIST CURVE: P-384
        X509v3 extensions:
            X509v3 Basic Constraints: critical
                CA:FALSE
            X509v3 Subject Key Identifier: 
                1C:19:EE:6E:25:6D:E3:16:43:AF:DC:22:00:F9:F9:B0:11:49:9F:66
            X509v3 Authority Key Identifier: 
                9C:30:A5:CE:AF:2D:0F:C4:35:2D:AB:22:A7:D8:12:76:FF:0C:DA:16
    Signature Algorithm: ecdsa-with-SHA256
    Signature Value:
        30:66:02:31:00:ab:b5:57:12:5f:2d:9b:33:f5:a4:58:41:3e:
        aa:d4:99:64:57:3f:49:1c:7a:d1:ab:52:d2:bf:e7:4c:b1:61:
        7c:19:a9:d7:a5:88:43:d1:0e:69:d8:70:69:f8:f7:bb:e2:02:
        31:00:d9:b8:13:fe:3f:30:5f:b9:04:c6:ce:92:ee:6c:ac:79:
        f8:c1:09:09:59:fb:01:6a:38:06:05:f8:99:21:db:0f:d5:bf:
        64:10:a9:21:48:52:a3:44:b8:18:79:15:99:f9
-----BEGIN CERTIFICATE-----
MIICMTCCAbagAwIBAgIBAjAKBggqhkjOPQQDAjB6MREwDwYDVQQDDAhJU0VOIEFD
STEPMA0GA1UECAwGRnJhbmNlMQswCQYDVQQGEwJGUjEpMCcGCSqGSIb3DQEJARYa
aHVnby5taWxsZXRAaXNlbi55bmNyZWEuZnIxDTALBgNVBAoMBElTRU4xDTALBgNV
BAsMBElTRU4wHhcNMjMwNDIzMTU0MzI5WhcNMjMwNzIyMTU0MzI5WjA6MQ0wCwYD
VQQDDARodWdvMSkwJwYJKoZIhvcNAQkBFhpodWdvLm1pbGxldEBpc2VuLnluY3Jl
YS5mcjB2MBAGByqGSM49AgEGBSuBBAAiA2IABJ96HWBQx/B2c0lHRfJ7QQgMearC
Qp6jrTsqov2UBcKL/RQIjiiGHFibIiJGC2Iu81VG8XWe8eOHA+oWF94+ReBoTu02
Y/QyuJvV6HbNv4Dr9ROO/mJku7gyPaocQD4WWqNQME4wDAYDVR0TAQH/BAIwADAd
BgNVHQ4EFgQUHBnubiVt4xZDr9wiAPn5sBFJn2YwHwYDVR0jBBgwFoAUnDClzq8t
D8Q1Lasip9gSdv8M2hYwCgYIKoZIzj0EAwIDaQAwZgIxAKu1VxJfLZsz9aRYQT6q
1JlkVz9JHHrRq1LSv+dMsWF8GanXpYhD0Q5p2HBp+Pe74gIxANm4E/4/MF+5BMbO
ku5srHn4wQkJWfsBajgGBfiZIdsP1b9kEKkhSFKjRLgYeRWZ+Q==
-----END CERTIFICATE-----
