Certificate:
    Data:
        Version: 3 (0x2)
        Serial Number: 2 (0x2)
        Signature Algorithm: ecdsa-with-SHA256
        Issuer: CN=ISEN, ST=France, C=FR/emailAddress=hugo.millet@isen.yncrea.fr, O=ISEN, OU=ISEN
        Validity
            Not Before: Apr 20 13:04:09 2023 GMT
            Not After : Jul 19 13:04:09 2023 GMT
        Subject: CN=hugo/emailAddress=hugo.millet@isen.yncrea.fr
        Subject Public Key Info:
            Public Key Algorithm: id-ecPublicKey
                Public-Key: (384 bit)
                pub:
                    04:9f:7a:1d:60:50:c7:f0:76:73:49:47:45:f2:7b:
                    41:08:0c:79:aa:c2:42:9e:a3:ad:3b:2a:a2:fd:94:
                    05:c2:8b:fd:14:08:8e:28:86:1c:58:9b:22:22:46:
                    0b:62:2e:f3:55:46:f1:75:9e:f1:e3:87:03:ea:16:
                    17:de:3e:45:e0:68:4e:ed:36:63:f4:32:b8:9b:d5:
                    e8:76:cd:bf:80:eb:f5:13:8e:fe:62:64:bb:b8:32:
                    3d:aa:1c:40:3e:16:5a
                ASN1 OID: secp384r1
                NIST CURVE: P-384
        X509v3 extensions:
            X509v3 Basic Constraints: critical
                CA:FALSE
            X509v3 Subject Key Identifier: 
                1C:19:EE:6E:25:6D:E3:16:43:AF:DC:22:00:F9:F9:B0:11:49:9F:66
            X509v3 Authority Key Identifier: 
                DA:EA:63:0B:B4:F1:9D:07:06:63:3C:58:0C:E4:B6:D8:BE:DB:2E:D8
    Signature Algorithm: ecdsa-with-SHA256
    Signature Value:
        30:66:02:31:00:b6:ef:66:c2:da:37:16:88:c9:a6:dd:71:93:
        e5:e6:ba:92:6c:67:c9:b7:4d:2f:57:5e:fd:ed:14:27:99:c7:
        b9:ce:12:6d:9e:be:44:7c:fa:2f:9c:1a:39:39:e1:61:72:02:
        31:00:91:52:b1:d0:29:42:16:af:45:8d:dc:b2:36:a7:bd:3f:
        4e:ef:0e:4b:11:7e:fb:9a:61:48:b1:8b:d0:59:83:68:af:74:
        7a:aa:e8:d9:08:c1:8c:b1:df:51:51:4c:8e:c1
-----BEGIN CERTIFICATE-----
MIICLTCCAbKgAwIBAgIBAjAKBggqhkjOPQQDAjB2MQ0wCwYDVQQDDARJU0VOMQ8w
DQYDVQQIDAZGcmFuY2UxCzAJBgNVBAYTAkZSMSkwJwYJKoZIhvcNAQkBFhpodWdv
Lm1pbGxldEBpc2VuLnluY3JlYS5mcjENMAsGA1UECgwESVNFTjENMAsGA1UECwwE
SVNFTjAeFw0yMzA0MjAxMzA0MDlaFw0yMzA3MTkxMzA0MDlaMDoxDTALBgNVBAMM
BGh1Z28xKTAnBgkqhkiG9w0BCQEWGmh1Z28ubWlsbGV0QGlzZW4ueW5jcmVhLmZy
MHYwEAYHKoZIzj0CAQYFK4EEACIDYgAEn3odYFDH8HZzSUdF8ntBCAx5qsJCnqOt
Oyqi/ZQFwov9FAiOKIYcWJsiIkYLYi7zVUbxdZ7x44cD6hYX3j5F4GhO7TZj9DK4
m9Xods2/gOv1E47+YmS7uDI9qhxAPhZao1AwTjAMBgNVHRMBAf8EAjAAMB0GA1Ud
DgQWBBQcGe5uJW3jFkOv3CIA+fmwEUmfZjAfBgNVHSMEGDAWgBTa6mMLtPGdBwZj
PFgM5LbYvtsu2DAKBggqhkjOPQQDAgNpADBmAjEAtu9mwto3FojJpt1xk+XmupJs
Z8m3TS9XXv3tFCeZx7nOEm2evkR8+i+cGjk54WFyAjEAkVKx0ClCFq9FjdyyNqe9
P07vDksRfvuaYUixi9BZg2ivdHqq6NkIwYyx31FRTI7B
-----END CERTIFICATE-----
