Certificate:
    Data:
        Version: 3 (0x2)
        Serial Number: 2 (0x2)
        Signature Algorithm: ecdsa-with-SHA256
        Issuer: CN=Common Name (eg, fully qualified host name), ST=State or Province Name (full name), C=FR/emailAddress=Email@Address, O=Organization Name (eg, company), OU=Organizational Unit Name (eg, section)
        Validity
            Not Before: Apr 20 12:53:32 2023 GMT
            Not After : Jul 19 12:53:32 2023 GMT
        Subject: CN=hugo/emailAddress=hugo.millet@isen.yncrea.fr
        Subject Public Key Info:
            Public Key Algorithm: id-ecPublicKey
                Public-Key: (384 bit)
                pub:
                    04:9f:7a:1d:60:50:c7:f0:76:73:49:47:45:f2:7b:
                    41:08:0c:79:aa:c2:42:9e:a3:ad:3b:2a:a2:fd:94:
                    05:c2:8b:fd:14:08:8e:28:86:1c:58:9b:22:22:46:
                    0b:62:2e:f3:55:46:f1:75:9e:f1:e3:87:03:ea:16:
                    17:de:3e:45:e0:68:4e:ed:36:63:f4:32:b8:9b:d5:
                    e8:76:cd:bf:80:eb:f5:13:8e:fe:62:64:bb:b8:32:
                    3d:aa:1c:40:3e:16:5a
                ASN1 OID: secp384r1
                NIST CURVE: P-384
        X509v3 extensions:
            X509v3 Basic Constraints: critical
                CA:FALSE
            X509v3 Subject Key Identifier: 
                1C:19:EE:6E:25:6D:E3:16:43:AF:DC:22:00:F9:F9:B0:11:49:9F:66
            X509v3 Authority Key Identifier: 
                E3:5C:23:20:0F:3D:FA:60:CC:14:F3:A4:BB:0E:09:BD:03:D8:1E:82
    Signature Algorithm: ecdsa-with-SHA256
    Signature Value:
        30:65:02:30:7d:d3:27:41:9e:90:ea:aa:f7:01:b1:74:93:bc:
        4e:06:85:d7:3e:3b:18:0b:63:cf:c2:fd:82:ca:4f:12:b7:3d:
        f2:9e:06:ea:58:54:8a:a5:4d:68:dc:f1:91:09:21:32:02:31:
        00:c3:29:be:72:16:8f:93:ec:b5:d2:31:0e:90:5a:22:71:5b:
        0c:3a:f3:15:af:52:72:88:48:df:cc:fd:e8:89:20:6c:cb:b6:
        d1:97:63:ce:d6:76:79:37:15:0d:be:1e:9c
-----BEGIN CERTIFICATE-----
MIICoDCCAiagAwIBAgIBAjAKBggqhkjOPQQDAjCB6TE0MDIGA1UEAwwrQ29tbW9u
IE5hbWUgKGVnLCBmdWxseSBxdWFsaWZpZWQgaG9zdCBuYW1lKTErMCkGA1UECAwi
U3RhdGUgb3IgUHJvdmluY2UgTmFtZSAoZnVsbCBuYW1lKTELMAkGA1UEBhMCRlIx
HDAaBgkqhkiG9w0BCQEWDUVtYWlsQEFkZHJlc3MxKDAmBgNVBAoMH09yZ2FuaXph
dGlvbiBOYW1lIChlZywgY29tcGFueSkxLzAtBgNVBAsMJk9yZ2FuaXphdGlvbmFs
IFVuaXQgTmFtZSAoZWcsIHNlY3Rpb24pMB4XDTIzMDQyMDEyNTMzMloXDTIzMDcx
OTEyNTMzMlowOjENMAsGA1UEAwwEaHVnbzEpMCcGCSqGSIb3DQEJARYaaHVnby5t
aWxsZXRAaXNlbi55bmNyZWEuZnIwdjAQBgcqhkjOPQIBBgUrgQQAIgNiAASfeh1g
UMfwdnNJR0Xye0EIDHmqwkKeo607KqL9lAXCi/0UCI4ohhxYmyIiRgtiLvNVRvF1
nvHjhwPqFhfePkXgaE7tNmP0Mrib1eh2zb+A6/UTjv5iZLu4Mj2qHEA+FlqjUDBO
MAwGA1UdEwEB/wQCMAAwHQYDVR0OBBYEFBwZ7m4lbeMWQ6/cIgD5+bARSZ9mMB8G
A1UdIwQYMBaAFONcIyAPPfpgzBTzpLsOCb0D2B6CMAoGCCqGSM49BAMCA2gAMGUC
MH3TJ0GekOqq9wGxdJO8TgaF1z47GAtjz8L9gspPErc98p4G6lhUiqVNaNzxkQkh
MgIxAMMpvnIWj5PstdIxDpBaInFbDDrzFa9ScohI38z96IkgbMu20ZdjztZ2eTcV
Db4enA==
-----END CERTIFICATE-----
