Certificate:
    Data:
        Version: 3 (0x2)
        Serial Number: 2 (0x2)
        Signature Algorithm: ecdsa-with-SHA256
        Issuer: CN=ISEN, ST=France, C=FR/emailAddress=hugo.millet@isen.yncrea.fr, O=ISEN, OU=ISEN
        Validity
            Not Before: Apr 20 13:54:18 2023 GMT
            Not After : Jul 19 13:54:18 2023 GMT
        Subject: CN=hugo/emailAddress=hugo.millet@isen.yncrea.fr
        Subject Public Key Info:
            Public Key Algorithm: id-ecPublicKey
                Public-Key: (384 bit)
                pub:
                    04:9f:7a:1d:60:50:c7:f0:76:73:49:47:45:f2:7b:
                    41:08:0c:79:aa:c2:42:9e:a3:ad:3b:2a:a2:fd:94:
                    05:c2:8b:fd:14:08:8e:28:86:1c:58:9b:22:22:46:
                    0b:62:2e:f3:55:46:f1:75:9e:f1:e3:87:03:ea:16:
                    17:de:3e:45:e0:68:4e:ed:36:63:f4:32:b8:9b:d5:
                    e8:76:cd:bf:80:eb:f5:13:8e:fe:62:64:bb:b8:32:
                    3d:aa:1c:40:3e:16:5a
                ASN1 OID: secp384r1
                NIST CURVE: P-384
        X509v3 extensions:
            X509v3 Basic Constraints: critical
                CA:FALSE
            X509v3 Subject Key Identifier: 
                1C:19:EE:6E:25:6D:E3:16:43:AF:DC:22:00:F9:F9:B0:11:49:9F:66
            X509v3 Authority Key Identifier: 
                92:27:E7:68:32:50:B7:59:D4:F2:28:65:96:1E:05:25:12:14:8E:07
    Signature Algorithm: ecdsa-with-SHA256
    Signature Value:
        30:64:02:30:68:58:19:b1:10:26:14:e7:71:0d:69:6e:a8:1a:
        f1:2c:c0:99:7a:c0:7e:6b:9d:46:03:4b:cc:a6:84:89:54:07:
        b3:97:d2:5b:3a:bb:5d:6f:d6:ac:43:8a:47:ee:28:e4:02:30:
        35:2b:fd:0c:80:f1:b0:1b:43:a8:a8:d3:17:a3:8c:50:21:0a:
        00:b0:cb:f5:16:c7:de:0b:cf:6a:24:ca:c6:bc:c7:b7:d0:f9:
        61:22:e3:72:fd:1d:13:2a:e7:b0:0e:95
-----BEGIN CERTIFICATE-----
MIICKzCCAbKgAwIBAgIBAjAKBggqhkjOPQQDAjB2MQ0wCwYDVQQDDARJU0VOMQ8w
DQYDVQQIDAZGcmFuY2UxCzAJBgNVBAYTAkZSMSkwJwYJKoZIhvcNAQkBFhpodWdv
Lm1pbGxldEBpc2VuLnluY3JlYS5mcjENMAsGA1UECgwESVNFTjENMAsGA1UECwwE
SVNFTjAeFw0yMzA0MjAxMzU0MThaFw0yMzA3MTkxMzU0MThaMDoxDTALBgNVBAMM
BGh1Z28xKTAnBgkqhkiG9w0BCQEWGmh1Z28ubWlsbGV0QGlzZW4ueW5jcmVhLmZy
MHYwEAYHKoZIzj0CAQYFK4EEACIDYgAEn3odYFDH8HZzSUdF8ntBCAx5qsJCnqOt
Oyqi/ZQFwov9FAiOKIYcWJsiIkYLYi7zVUbxdZ7x44cD6hYX3j5F4GhO7TZj9DK4
m9Xods2/gOv1E47+YmS7uDI9qhxAPhZao1AwTjAMBgNVHRMBAf8EAjAAMB0GA1Ud
DgQWBBQcGe5uJW3jFkOv3CIA+fmwEUmfZjAfBgNVHSMEGDAWgBSSJ+doMlC3WdTy
KGWWHgUlEhSOBzAKBggqhkjOPQQDAgNnADBkAjBoWBmxECYU53ENaW6oGvEswJl6
wH5rnUYDS8ymhIlUB7OX0ls6u11v1qxDikfuKOQCMDUr/QyA8bAbQ6io0xejjFAh
CgCwy/UWx94Lz2okysa8x7fQ+WEi43L9HRMq57AOlQ==
-----END CERTIFICATE-----
