Certificate:
    Data:
        Version: 3 (0x2)
        Serial Number: 3 (0x3)
        Signature Algorithm: sha256WithRSAEncryption
        Issuer: CN=Common Name (eg, fully qualified host name), ST=State or Province Name (full name), C=FR/emailAddress=Email@Address, O=Organization Name (eg, company), OU=Organizational Unit Name (eg, section)
        Validity
            Not Before: Apr 20 12:35:38 2023 GMT
            Not After : Jul 19 12:35:38 2023 GMT
        Subject: CN=hugo/emailAddress=hugo.millet@isen.yncrea.fr
        Subject Public Key Info:
            Public Key Algorithm: rsaEncryption
                Public-Key: (2048 bit)
                Modulus:
                    00:cc:2a:cf:7d:cd:8a:04:b5:70:57:77:82:19:8e:
                    10:3c:35:b5:51:7c:29:01:e0:e9:bb:77:c5:de:7d:
                    e5:be:17:ab:c7:b7:0b:0e:58:9c:bf:6d:ba:dc:a0:
                    a8:da:12:97:43:68:e6:5f:99:f5:05:ae:61:ee:39:
                    a9:ec:8e:df:34:94:06:7e:4c:f1:cd:42:53:87:a1:
                    d0:93:44:b5:b1:6f:03:cf:15:72:ce:66:2f:bb:7a:
                    a5:f0:17:31:d3:fe:a1:61:e3:f0:94:f7:bd:5a:f2:
                    81:52:85:b5:44:3e:5b:ff:49:5b:7d:ca:25:7f:dc:
                    8a:72:e2:f9:cc:ea:23:3e:99:3e:59:80:eb:9e:70:
                    6a:a5:69:5f:59:01:a5:21:66:68:aa:0e:90:92:35:
                    a5:8f:f0:3b:13:65:54:2a:89:84:3c:5d:77:1c:04:
                    5b:42:46:b9:86:2a:4b:cd:d4:44:34:18:ea:5c:ec:
                    15:76:93:ef:76:88:17:65:fa:ec:fb:db:55:44:ee:
                    2a:93:6a:c3:c3:d4:ae:5c:a6:ed:bb:e6:c6:0e:1e:
                    28:98:e3:cb:42:14:1e:f9:c9:77:bb:ff:d1:df:3e:
                    ae:2a:90:1f:86:1a:5e:2b:c8:c9:1f:28:3c:54:ac:
                    37:5a:ae:49:c9:a7:58:61:07:40:a9:fd:cf:01:02:
                    0c:4b
                Exponent: 65537 (0x10001)
        X509v3 extensions:
            X509v3 Basic Constraints: critical
                CA:FALSE
            X509v3 Subject Key Identifier: 
                B5:C4:10:2D:6D:06:9F:1C:EA:2D:23:62:7A:38:37:B5:73:A1:63:69
            X509v3 Authority Key Identifier: 
                DirName:/CN=Common Name (eg, fully qualified host name)/ST=State or Province Name (full name)/C=FR/emailAddress=Email@Address/O=Organization Name (eg, company)/OU=Organizational Unit Name (eg, section)
                serial:01
    Signature Algorithm: sha256WithRSAEncryption
    Signature Value:
        5f:95:76:08:c0:19:65:40:ec:41:88:db:98:0c:74:1a:20:a8:
        04:28:48:42:aa:cc:10:cf:82:c6:c5:a6:55:4e:7b:7c:4e:f2:
        fc:1e:f6:c7:d0:11:87:64:1d:82:10:65:64:09:50:02:87:3a:
        74:96:5f:5c:28:12:7e:ee:37:a2:50:bf:06:e7:7a:72:5b:77:
        ab:e7:a8:4d:34:b1:3d:b3:31:fb:b1:62:fb:7c:2f:d6:6d:3d:
        b0:77:79:27:06:7e:22:3d:2c:81:96:1e:21:cb:2c:50:70:91:
        b0:72:31:87:14:93:26:7d:1b:68:e2:48:4e:d4:5a:1f:60:e5:
        5b:1a:e6:d6:9f:65:41:30:36:ae:f9:95:ea:a2:29:1b:7f:49:
        dd:a8:24:f8:d1:75:b9:3d:ed:51:0b:a7:59:1f:b4:b8:b7:65:
        03:b9:2f:38:3b:45:2e:10:1d:36:5c:4d:a8:66:dd:21:e2:e2:
        28:e4:c6:8f:93:de:8f:03:65:b8:e6:51:9b:0d:8d:3a:3b:2a:
        39:52:d2:40:6c:50:07:e2:f5:e8:5c:68:18:cb:f4:be:07:cd:
        b5:c4:6a:7c:32:05:2f:f2:6b:e2:52:b3:0c:50:95:1e:97:45:
        ea:27:2c:e0:17:be:3b:5c:5a:85:0e:81:d6:df:ab:5f:a4:96:
        e9:42:06:a7
-----BEGIN CERTIFICATE-----
MIIE1jCCA76gAwIBAgIBAzANBgkqhkiG9w0BAQsFADCB6TE0MDIGA1UEAwwrQ29t
bW9uIE5hbWUgKGVnLCBmdWxseSBxdWFsaWZpZWQgaG9zdCBuYW1lKTErMCkGA1UE
CAwiU3RhdGUgb3IgUHJvdmluY2UgTmFtZSAoZnVsbCBuYW1lKTELMAkGA1UEBhMC
RlIxHDAaBgkqhkiG9w0BCQEWDUVtYWlsQEFkZHJlc3MxKDAmBgNVBAoMH09yZ2Fu
aXphdGlvbiBOYW1lIChlZywgY29tcGFueSkxLzAtBgNVBAsMJk9yZ2FuaXphdGlv
bmFsIFVuaXQgTmFtZSAoZWcsIHNlY3Rpb24pMB4XDTIzMDQyMDEyMzUzOFoXDTIz
MDcxOTEyMzUzOFowOjENMAsGA1UEAwwEaHVnbzEpMCcGCSqGSIb3DQEJARYaaHVn
by5taWxsZXRAaXNlbi55bmNyZWEuZnIwggEiMA0GCSqGSIb3DQEBAQUAA4IBDwAw
ggEKAoIBAQDMKs99zYoEtXBXd4IZjhA8NbVRfCkB4Om7d8XefeW+F6vHtwsOWJy/
bbrcoKjaEpdDaOZfmfUFrmHuOansjt80lAZ+TPHNQlOHodCTRLWxbwPPFXLOZi+7
eqXwFzHT/qFh4/CU971a8oFShbVEPlv/SVt9yiV/3Ipy4vnM6iM+mT5ZgOuecGql
aV9ZAaUhZmiqDpCSNaWP8DsTZVQqiYQ8XXccBFtCRrmGKkvN1EQ0GOpc7BV2k+92
iBdl+uz721VE7iqTasPD1K5cpu275sYOHiiY48tCFB75yXe7/9HfPq4qkB+GGl4r
yMkfKDxUrDdarknJp1hhB0Cp/c8BAgxLAgMBAAGjggE1MIIBMTAMBgNVHRMBAf8E
AjAAMB0GA1UdDgQWBBS1xBAtbQafHOotI2J6ODe1c6FjaTCCAQAGA1UdIwSB+DCB
9aGB76SB7DCB6TE0MDIGA1UEAwwrQ29tbW9uIE5hbWUgKGVnLCBmdWxseSBxdWFs
aWZpZWQgaG9zdCBuYW1lKTErMCkGA1UECAwiU3RhdGUgb3IgUHJvdmluY2UgTmFt
ZSAoZnVsbCBuYW1lKTELMAkGA1UEBhMCRlIxHDAaBgkqhkiG9w0BCQEWDUVtYWls
QEFkZHJlc3MxKDAmBgNVBAoMH09yZ2FuaXphdGlvbiBOYW1lIChlZywgY29tcGFu
eSkxLzAtBgNVBAsMJk9yZ2FuaXphdGlvbmFsIFVuaXQgTmFtZSAoZWcsIHNlY3Rp
b24pggEBMA0GCSqGSIb3DQEBCwUAA4IBAQBflXYIwBllQOxBiNuYDHQaIKgEKEhC
qswQz4LGxaZVTnt8TvL8HvbH0BGHZB2CEGVkCVAChzp0ll9cKBJ+7jeiUL8G53py
W3er56hNNLE9szH7sWL7fC/WbT2wd3knBn4iPSyBlh4hyyxQcJGwcjGHFJMmfRto
4khO1FofYOVbGubWn2VBMDau+ZXqoikbf0ndqCT40XW5Pe1RC6dZH7S4t2UDuS84
O0UuEB02XE2oZt0h4uIo5MaPk96PA2W45lGbDY06Oyo5UtJAbFAH4vXoXGgYy/S+
B821xGp8MgUv8mviUrMMUJUel0XqJyzgF747XFqFDoHW36tfpJbpQgan
-----END CERTIFICATE-----
