Certificate:
    Data:
        Version: 3 (0x2)
        Serial Number: 1 (0x1)
        Signature Algorithm: ecdsa-with-SHA256
        Issuer: CN=ISEN ACR, ST=France, C=FR/emailAddress=hugo.millet@isen.yncrea.fr, O=ISEN, OU=ISEN
        Validity
            Not Before: Apr 23 16:26:03 2023 GMT
            Not After : Apr 22 16:26:03 2024 GMT
        Subject: CN=ISEN ACI, ST=France, C=FR/emailAddress=hugo.millet@isen.yncrea.fr, O=ISEN, OU=ISEN
        Subject Public Key Info:
            Public Key Algorithm: id-ecPublicKey
                Public-Key: (384 bit)
                pub:
                    04:65:ab:7c:95:cc:ca:9c:cd:9c:1b:3e:3b:02:e7:
                    9a:8f:04:4b:78:1a:5c:af:c1:33:c8:12:82:86:d5:
                    18:b6:f2:3c:06:d6:40:aa:6f:4a:b9:85:0e:af:68:
                    6a:43:7e:99:64:23:25:06:64:25:b4:9d:34:4b:6d:
                    8a:b3:71:11:47:1b:16:2c:64:57:f9:61:12:f5:7f:
                    75:26:de:34:ae:c6:87:2c:90:e1:97:a3:0f:75:6d:
                    ef:03:d5:b2:79:e4:f4
                ASN1 OID: secp384r1
                NIST CURVE: P-384
        X509v3 extensions:
            X509v3 Basic Constraints: critical
                CA:TRUE, pathlen:0
            X509v3 Key Usage: 
                Digital Signature, Key Encipherment, Certificate Sign
            X509v3 Subject Key Identifier: 
                D2:24:2F:28:F7:27:41:F7:B6:A1:4B:4A:52:6E:FD:F9:DC:3D:75:60
            X509v3 Authority Key Identifier: 
                5E:6B:EC:3F:97:05:38:5D:C2:83:89:95:3D:44:E5:29:49:A6:FA:AB
    Signature Algorithm: ecdsa-with-SHA256
    Signature Value:
        30:65:02:31:00:d0:9a:bb:3c:d1:6d:f5:24:3c:04:af:66:15:
        6e:2f:fc:68:1e:ce:42:20:59:79:3c:f9:30:dc:5e:4c:c8:0b:
        78:96:14:dc:e5:36:32:bc:46:43:64:34:ac:cd:d4:e2:bb:02:
        30:09:f1:0c:3f:45:62:e4:02:b2:c6:f2:9b:eb:47:77:c0:5f:
        c6:24:a6:2a:20:df:a6:37:6f:a5:ca:a5:1c:3c:bc:ba:ff:9f:
        cb:37:7c:cf:9e:e3:32:0b:ed:0b:6a:62:c8
-----BEGIN CERTIFICATE-----
MIICgzCCAgmgAwIBAgIBATAKBggqhkjOPQQDAjB6MREwDwYDVQQDDAhJU0VOIEFD
UjEPMA0GA1UECAwGRnJhbmNlMQswCQYDVQQGEwJGUjEpMCcGCSqGSIb3DQEJARYa
aHVnby5taWxsZXRAaXNlbi55bmNyZWEuZnIxDTALBgNVBAoMBElTRU4xDTALBgNV
BAsMBElTRU4wHhcNMjMwNDIzMTYyNjAzWhcNMjQwNDIyMTYyNjAzWjB6MREwDwYD
VQQDDAhJU0VOIEFDSTEPMA0GA1UECAwGRnJhbmNlMQswCQYDVQQGEwJGUjEpMCcG
CSqGSIb3DQEJARYaaHVnby5taWxsZXRAaXNlbi55bmNyZWEuZnIxDTALBgNVBAoM
BElTRU4xDTALBgNVBAsMBElTRU4wdjAQBgcqhkjOPQIBBgUrgQQAIgNiAARlq3yV
zMqczZwbPjsC55qPBEt4GlyvwTPIEoKG1Ri28jwG1kCqb0q5hQ6vaGpDfplkIyUG
ZCW0nTRLbYqzcRFHGxYsZFf5YRL1f3Um3jSuxocskOGXow91be8D1bJ55PSjYzBh
MBIGA1UdEwEB/wQIMAYBAf8CAQAwCwYDVR0PBAQDAgKkMB0GA1UdDgQWBBTSJC8o
9ydB97ahS0pSbv353D11YDAfBgNVHSMEGDAWgBRea+w/lwU4XcKDiZU9ROUpSab6
qzAKBggqhkjOPQQDAgNoADBlAjEA0Jq7PNFt9SQ8BK9mFW4v/GgezkIgWXk8+TDc
XkzIC3iWFNzlNjK8RkNkNKzN1OK7AjAJ8Qw/RWLkArLG8pvrR3fAX8Ykpiog36Y3
b6XKpRw8vLr/n8s3fM+e4zIL7QtqYsg=
-----END CERTIFICATE-----
