Certificate:
    Data:
        Version: 3 (0x2)
        Serial Number: 1 (0x1)
        Signature Algorithm: ecdsa-with-SHA256
        Issuer: CN=ISEN ACR, ST=France, C=FR/emailAddress=hugo.millet@isen.yncrea.fr, O=ISEN, OU=ISEN
        Validity
            Not Before: Apr 30 15:47:39 2023 GMT
            Not After : Apr 28 15:47:39 2028 GMT
        Subject: CN=ISEN ACI, ST=France, C=FR/emailAddress=hugo.millet@isen.yncrea.fr, O=ISEN, OU=ISEN
        Subject Public Key Info:
            Public Key Algorithm: id-ecPublicKey
                Public-Key: (256 bit)
                pub:
                    04:17:e5:c6:85:12:98:28:d5:f8:c0:00:fb:1a:3a:
                    72:08:56:5b:50:6c:74:61:f1:c4:7a:80:23:2d:da:
                    7c:eb:9b:14:5b:2e:a1:02:42:f0:00:a7:a5:18:e6:
                    75:30:ea:7f:7a:ca:95:a4:51:10:1d:6e:25:4c:b6:
                    7b:8b:64:db:2d
                ASN1 OID: prime256v1
                NIST CURVE: P-256
        X509v3 extensions:
            X509v3 Basic Constraints: critical
                CA:TRUE, pathlen:0
            Authority Information Access: 
                OCSP - URI:http://127.0.0.1:8888
            X509v3 Key Usage: 
                Digital Signature, Key Encipherment, Certificate Sign
            X509v3 Subject Key Identifier: 
                C6:35:4C:69:A4:52:EF:7E:1F:A2:6B:06:60:3D:44:93:4A:34:19:72
            X509v3 Authority Key Identifier: 
                E2:FD:28:D3:2F:4E:F2:E0:A2:E0:DC:57:47:1F:61:DB:FD:C8:54:31
    Signature Algorithm: ecdsa-with-SHA256
    Signature Value:
        30:45:02:20:34:37:39:b3:15:69:3f:38:cf:d6:ac:c7:c4:10:
        2c:70:54:7e:5a:e1:d7:cb:1c:fc:51:29:a0:8b:65:f6:46:4a:
        02:21:00:d7:fb:c1:c5:f7:70:dc:05:57:35:03:b1:61:7a:6f:
        87:15:11:71:9a:27:9f:0c:86:f6:fa:f4:9b:ce:cc:f4:3f
-----BEGIN CERTIFICATE-----
MIICezCCAiGgAwIBAgIBATAKBggqhkjOPQQDAjB6MREwDwYDVQQDDAhJU0VOIEFD
UjEPMA0GA1UECAwGRnJhbmNlMQswCQYDVQQGEwJGUjEpMCcGCSqGSIb3DQEJARYa
aHVnby5taWxsZXRAaXNlbi55bmNyZWEuZnIxDTALBgNVBAoMBElTRU4xDTALBgNV
BAsMBElTRU4wHhcNMjMwNDMwMTU0NzM5WhcNMjgwNDI4MTU0NzM5WjB6MREwDwYD
VQQDDAhJU0VOIEFDSTEPMA0GA1UECAwGRnJhbmNlMQswCQYDVQQGEwJGUjEpMCcG
CSqGSIb3DQEJARYaaHVnby5taWxsZXRAaXNlbi55bmNyZWEuZnIxDTALBgNVBAoM
BElTRU4xDTALBgNVBAsMBElTRU4wWTATBgcqhkjOPQIBBggqhkjOPQMBBwNCAAQX
5caFEpgo1fjAAPsaOnIIVltQbHRh8cR6gCMt2nzrmxRbLqECQvAAp6UY5nUw6n96
ypWkURAdbiVMtnuLZNsto4GXMIGUMBIGA1UdEwEB/wQIMAYBAf8CAQAwMQYIKwYB
BQUHAQEEJTAjMCEGCCsGAQUFBzABhhVodHRwOi8vMTI3LjAuMC4xOjg4ODgwCwYD
VR0PBAQDAgKkMB0GA1UdDgQWBBTGNUxppFLvfh+iawZgPUSTSjQZcjAfBgNVHSME
GDAWgBTi/SjTL07y4KLg3FdHH2Hb/chUMTAKBggqhkjOPQQDAgNIADBFAiA0Nzmz
FWk/OM/WrMfEECxwVH5a4dfLHPxRKaCLZfZGSgIhANf7wcX3cNwFVzUDsWF6b4cV
EXGaJ58Mhvb69JvOzPQ/
-----END CERTIFICATE-----
