Certificate:
    Data:
        Version: 3 (0x2)
        Serial Number: 1 (0x1)
        Signature Algorithm: ecdsa-with-SHA256
        Issuer: CN=ISEN ACR, ST=France, C=FR/emailAddress=hugo.millet@isen.yncrea.fr, O=ISEN, OU=ISEN
        Validity
            Not Before: Apr 20 15:15:54 2023 GMT
            Not After : Apr 19 15:15:54 2024 GMT
        Subject: CN=ISEN ACI, ST=France, C=FR/emailAddress=hugo.millet@isen.yncrea.fr, O=ISEN, OU=ISEN
        Subject Public Key Info:
            Public Key Algorithm: id-ecPublicKey
                Public-Key: (384 bit)
                pub:
                    04:93:0d:54:45:4f:fa:c7:89:b2:dd:35:9f:e1:68:
                    9b:d6:72:85:9d:3c:b6:20:3d:4d:48:36:80:4b:72:
                    40:a6:73:cb:48:85:ef:3e:2a:fb:1b:56:2c:fe:91:
                    a3:83:8d:8a:75:b7:a8:a4:53:cc:fb:57:b2:16:e7:
                    a9:2e:59:14:29:1d:be:27:67:27:a7:5b:80:b5:2a:
                    a7:04:dd:ab:4c:ec:a7:8d:67:2a:72:c7:b5:92:fe:
                    e2:72:d8:ef:b6:79:f3
                ASN1 OID: secp384r1
                NIST CURVE: P-384
        X509v3 extensions:
            X509v3 Basic Constraints: critical
                CA:TRUE, pathlen:3
            X509v3 Key Usage: 
                Digital Signature, Key Encipherment, Certificate Sign
            X509v3 Subject Key Identifier: 
                D7:CE:9F:5E:EE:DA:19:20:AC:8C:86:A9:BC:66:E0:E1:8E:2D:DE:28
            X509v3 Authority Key Identifier: 
                81:FA:04:75:3C:30:E1:2C:B6:F1:AA:36:4A:0B:4D:89:4C:2F:E7:89
    Signature Algorithm: ecdsa-with-SHA256
    Signature Value:
        30:65:02:31:00:f1:14:4c:15:fa:c4:b8:74:8b:df:42:a6:5d:
        aa:9d:2f:93:17:57:b4:8d:7e:f8:42:6d:9b:96:93:07:d9:af:
        80:7a:9e:c0:4d:fc:0d:c6:bb:93:2a:ac:ab:25:ea:ee:bc:02:
        30:0e:ec:16:e9:26:e8:3d:24:1e:e6:7f:88:71:35:9b:0e:5b:
        ac:06:3e:03:79:c2:52:32:51:0f:53:cf:aa:a5:bc:42:0a:9d:
        2a:8c:ae:e2:18:2f:68:a5:53:01:89:f6:04
-----BEGIN CERTIFICATE-----
MIICgzCCAgmgAwIBAgIBATAKBggqhkjOPQQDAjB6MREwDwYDVQQDDAhJU0VOIEFD
UjEPMA0GA1UECAwGRnJhbmNlMQswCQYDVQQGEwJGUjEpMCcGCSqGSIb3DQEJARYa
aHVnby5taWxsZXRAaXNlbi55bmNyZWEuZnIxDTALBgNVBAoMBElTRU4xDTALBgNV
BAsMBElTRU4wHhcNMjMwNDIwMTUxNTU0WhcNMjQwNDE5MTUxNTU0WjB6MREwDwYD
VQQDDAhJU0VOIEFDSTEPMA0GA1UECAwGRnJhbmNlMQswCQYDVQQGEwJGUjEpMCcG
CSqGSIb3DQEJARYaaHVnby5taWxsZXRAaXNlbi55bmNyZWEuZnIxDTALBgNVBAoM
BElTRU4xDTALBgNVBAsMBElTRU4wdjAQBgcqhkjOPQIBBgUrgQQAIgNiAASTDVRF
T/rHibLdNZ/haJvWcoWdPLYgPU1INoBLckCmc8tIhe8+KvsbViz+kaODjYp1t6ik
U8z7V7IW56kuWRQpHb4nZyenW4C1KqcE3atM7KeNZypyx7WS/uJy2O+2efOjYzBh
MBIGA1UdEwEB/wQIMAYBAf8CAQMwCwYDVR0PBAQDAgKkMB0GA1UdDgQWBBTXzp9e
7toZIKyMhqm8ZuDhji3eKDAfBgNVHSMEGDAWgBSB+gR1PDDhLLbxqjZKC02JTC/n
iTAKBggqhkjOPQQDAgNoADBlAjEA8RRMFfrEuHSL30KmXaqdL5MXV7SNfvhCbZuW
kwfZr4B6nsBN/A3Gu5MqrKsl6u68AjAO7BbpJug9JB7mf4hxNZsOW6wGPgN5wlIy
UQ9Tz6qlvEIKnSqMruIYL2ilUwGJ9gQ=
-----END CERTIFICATE-----
