Certificate:
    Data:
        Version: 3 (0x2)
        Serial Number: 1 (0x1)
        Signature Algorithm: ecdsa-with-SHA256
        Issuer: CN=ISEN ACR, ST=France, C=FR/emailAddress=hugo.millet@isen.yncrea.fr, O=ISEN, OU=ISEN
        Validity
            Not Before: Apr 20 15:21:30 2023 GMT
            Not After : Apr 19 15:21:30 2024 GMT
        Subject: CN=ISEN ACI, ST=France, C=FR/emailAddress=hugo.millet@isen.yncrea.fr, O=ISEN, OU=ISEN
        Subject Public Key Info:
            Public Key Algorithm: id-ecPublicKey
                Public-Key: (384 bit)
                pub:
                    04:68:15:c3:05:5d:16:9f:4b:ae:04:7b:69:46:7a:
                    a9:72:50:f2:f3:46:3d:c1:90:3e:0c:02:7d:f3:02:
                    51:17:aa:1d:f9:6a:14:36:c0:a4:5b:9c:22:80:0a:
                    bf:16:fb:b4:c9:c8:f8:fd:4f:6c:ad:de:9c:69:b9:
                    17:52:15:b4:07:b2:a3:a2:2b:38:80:02:0e:2a:3a:
                    1b:15:fe:23:0d:4b:ad:18:76:37:f8:35:69:8a:eb:
                    cf:6c:2b:b8:60:1b:cc
                ASN1 OID: secp384r1
                NIST CURVE: P-384
        X509v3 extensions:
            X509v3 Basic Constraints: critical
                CA:TRUE, pathlen:3
            X509v3 Key Usage: 
                Digital Signature, Key Encipherment, Certificate Sign
            X509v3 Subject Key Identifier: 
                CF:91:D2:23:F1:C1:80:57:7D:37:0A:09:D9:45:6E:48:B3:33:7D:14
            X509v3 Authority Key Identifier: 
                CA:5C:EE:FA:A0:2B:43:40:47:F7:29:A8:E9:AC:5E:40:88:A3:87:0A
    Signature Algorithm: ecdsa-with-SHA256
    Signature Value:
        30:64:02:30:73:2e:d5:00:66:75:56:0a:26:4c:a7:bb:c4:ae:
        ed:d9:de:1a:fd:b1:eb:8a:fe:13:f0:e1:af:55:ef:93:f0:74:
        7f:11:6b:68:33:47:bb:6d:89:17:9c:08:49:49:6d:1f:02:30:
        69:01:b6:19:f7:a3:d9:c9:4a:03:50:22:80:b1:86:2d:93:f8:
        0e:33:be:ae:55:86:68:18:2f:f0:25:34:d1:5a:b9:cf:4f:38:
        fa:70:44:9b:50:f8:dc:f2:3a:54:12:09
-----BEGIN CERTIFICATE-----
MIICgjCCAgmgAwIBAgIBATAKBggqhkjOPQQDAjB6MREwDwYDVQQDDAhJU0VOIEFD
UjEPMA0GA1UECAwGRnJhbmNlMQswCQYDVQQGEwJGUjEpMCcGCSqGSIb3DQEJARYa
aHVnby5taWxsZXRAaXNlbi55bmNyZWEuZnIxDTALBgNVBAoMBElTRU4xDTALBgNV
BAsMBElTRU4wHhcNMjMwNDIwMTUyMTMwWhcNMjQwNDE5MTUyMTMwWjB6MREwDwYD
VQQDDAhJU0VOIEFDSTEPMA0GA1UECAwGRnJhbmNlMQswCQYDVQQGEwJGUjEpMCcG
CSqGSIb3DQEJARYaaHVnby5taWxsZXRAaXNlbi55bmNyZWEuZnIxDTALBgNVBAoM
BElTRU4xDTALBgNVBAsMBElTRU4wdjAQBgcqhkjOPQIBBgUrgQQAIgNiAARoFcMF
XRafS64Ee2lGeqlyUPLzRj3BkD4MAn3zAlEXqh35ahQ2wKRbnCKACr8W+7TJyPj9
T2yt3pxpuRdSFbQHsqOiKziAAg4qOhsV/iMNS60Ydjf4NWmK689sK7hgG8yjYzBh
MBIGA1UdEwEB/wQIMAYBAf8CAQMwCwYDVR0PBAQDAgKkMB0GA1UdDgQWBBTPkdIj
8cGAV303CgnZRW5IszN9FDAfBgNVHSMEGDAWgBTKXO76oCtDQEf3KajprF5AiKOH
CjAKBggqhkjOPQQDAgNnADBkAjBzLtUAZnVWCiZMp7vEru3Z3hr9seuK/hPw4a9V
75PwdH8Ra2gzR7ttiRecCElJbR8CMGkBthn3o9nJSgNQIoCxhi2T+A4zvq5VhmgY
L/AlNNFauc9POPpwRJtQ+NzyOlQSCQ==
-----END CERTIFICATE-----
