Certificate:
    Data:
        Version: 3 (0x2)
        Serial Number: 1 (0x1)
        Signature Algorithm: ecdsa-with-SHA256
        Issuer: CN=ISEN ACR, ST=France, C=FR/emailAddress=hugo.millet@isen.yncrea.fr, O=ISEN, OU=ISEN
        Validity
            Not Before: Apr 23 08:36:09 2023 GMT
            Not After : Apr 22 08:36:09 2024 GMT
        Subject: CN=ISEN ACI, ST=France, C=FR/emailAddress=hugo.millet@isen.yncrea.fr, O=ISEN, OU=ISEN
        Subject Public Key Info:
            Public Key Algorithm: id-ecPublicKey
                Public-Key: (384 bit)
                pub:
                    04:61:97:9b:cf:26:54:7a:3b:32:71:16:96:d9:bb:
                    95:25:5d:72:aa:5c:33:85:da:e1:00:4f:7f:69:af:
                    92:6e:f6:d1:ae:5f:5d:32:38:c4:a4:8c:08:15:fb:
                    bb:6c:dd:f2:7e:e0:7c:20:a8:e5:96:23:90:d9:66:
                    50:49:eb:70:e4:f8:a0:70:a2:fa:5a:df:2b:ab:3a:
                    ae:ae:1e:27:55:57:da:f6:9c:ef:47:86:3a:45:dd:
                    3a:34:19:40:71:bf:7c
                ASN1 OID: secp384r1
                NIST CURVE: P-384
        X509v3 extensions:
            X509v3 Basic Constraints: critical
                CA:TRUE, pathlen:0
            X509v3 Key Usage: 
                Digital Signature, Key Encipherment, Certificate Sign
            X509v3 Subject Key Identifier: 
                E3:1D:C3:59:3B:F2:05:5B:54:46:02:56:57:FE:78:3F:27:69:5D:10
            X509v3 Authority Key Identifier: 
                35:B7:1B:AD:B8:19:2C:96:BE:06:C4:3A:86:7F:6E:ED:3F:10:E7:8D
    Signature Algorithm: ecdsa-with-SHA256
    Signature Value:
        30:65:02:30:7a:28:f0:43:7c:41:3a:18:87:ab:0d:46:32:1c:
        5d:6b:aa:e5:bd:03:14:84:1e:4a:ea:56:e2:63:00:17:9a:72:
        a3:f4:97:b5:15:b6:25:47:f8:ff:b9:17:7e:a6:8a:a5:02:31:
        00:dd:c8:2d:cc:de:33:26:21:6c:b2:00:6b:64:b1:8b:f7:75:
        fd:05:4d:c2:ca:8a:fa:81:a3:6e:ec:cf:79:91:22:78:ab:67:
        a8:21:f7:da:ae:5e:f6:59:a2:8b:ae:e3:20
-----BEGIN CERTIFICATE-----
MIICgzCCAgmgAwIBAgIBATAKBggqhkjOPQQDAjB6MREwDwYDVQQDDAhJU0VOIEFD
UjEPMA0GA1UECAwGRnJhbmNlMQswCQYDVQQGEwJGUjEpMCcGCSqGSIb3DQEJARYa
aHVnby5taWxsZXRAaXNlbi55bmNyZWEuZnIxDTALBgNVBAoMBElTRU4xDTALBgNV
BAsMBElTRU4wHhcNMjMwNDIzMDgzNjA5WhcNMjQwNDIyMDgzNjA5WjB6MREwDwYD
VQQDDAhJU0VOIEFDSTEPMA0GA1UECAwGRnJhbmNlMQswCQYDVQQGEwJGUjEpMCcG
CSqGSIb3DQEJARYaaHVnby5taWxsZXRAaXNlbi55bmNyZWEuZnIxDTALBgNVBAoM
BElTRU4xDTALBgNVBAsMBElTRU4wdjAQBgcqhkjOPQIBBgUrgQQAIgNiAARhl5vP
JlR6OzJxFpbZu5UlXXKqXDOF2uEAT39pr5Ju9tGuX10yOMSkjAgV+7ts3fJ+4Hwg
qOWWI5DZZlBJ63Dk+KBwovpa3yurOq6uHidVV9r2nO9HhjpF3To0GUBxv3yjYzBh
MBIGA1UdEwEB/wQIMAYBAf8CAQAwCwYDVR0PBAQDAgKkMB0GA1UdDgQWBBTjHcNZ
O/IFW1RGAlZX/ng/J2ldEDAfBgNVHSMEGDAWgBQ1txutuBkslr4GxDqGf27tPxDn
jTAKBggqhkjOPQQDAgNoADBlAjB6KPBDfEE6GIerDUYyHF1rquW9AxSEHkrqVuJj
ABeacqP0l7UVtiVH+P+5F36miqUCMQDdyC3M3jMmIWyyAGtksYv3df0FTcLKivqB
o27sz3mRInirZ6gh99quXvZZoouu4yA=
-----END CERTIFICATE-----
