Certificate:
    Data:
        Version: 3 (0x2)
        Serial Number: 1 (0x1)
        Signature Algorithm: ecdsa-with-SHA256
        Issuer: CN=ISEN ACR, ST=France, C=FR/emailAddress=hugo.millet@isen.yncrea.fr, O=ISEN, OU=ISEN
        Validity
            Not Before: Apr 27 17:57:29 2023 GMT
            Not After : Apr 26 17:57:29 2024 GMT
        Subject: CN=ISEN ACI, ST=France, C=FR/emailAddress=hugo.millet@isen.yncrea.fr, O=ISEN, OU=ISEN
        Subject Public Key Info:
            Public Key Algorithm: id-ecPublicKey
                Public-Key: (384 bit)
                pub:
                    04:b2:2f:8b:26:4c:88:e0:8a:ca:37:43:67:59:01:
                    24:b5:f0:3d:4b:9d:d4:9e:9a:23:5e:64:5b:1c:26:
                    5f:bc:44:ae:31:11:bc:f3:2f:7f:04:b1:16:b0:94:
                    f8:7d:fb:bc:24:5a:2a:66:93:ff:7e:86:98:d0:13:
                    6a:41:ef:2f:ab:d4:4f:d2:9e:f1:86:9b:f1:25:8e:
                    67:69:e2:1c:b4:d7:2a:8a:19:a0:ed:38:a4:6e:bc:
                    8d:0f:d2:cf:1e:1d:e1
                ASN1 OID: secp384r1
                NIST CURVE: P-384
        X509v3 extensions:
            X509v3 Basic Constraints: critical
                CA:TRUE, pathlen:0
            X509v3 Key Usage: 
                Digital Signature, Key Encipherment, Certificate Sign
            X509v3 Subject Key Identifier: 
                C2:55:ED:FE:A2:CC:4A:D8:E4:3A:17:85:9A:A6:27:C5:49:B5:FC:C3
            X509v3 Authority Key Identifier: 
                1B:6F:8F:A1:21:2F:EE:E1:14:C2:57:65:49:9A:EC:AC:E8:93:3D:F0
    Signature Algorithm: ecdsa-with-SHA256
    Signature Value:
        30:64:02:30:06:77:a8:f7:a0:90:40:2b:24:78:f0:bd:f5:2e:
        c5:16:b0:f7:b8:98:5d:98:ec:da:82:1c:ae:2b:e7:88:48:69:
        3b:0f:79:ea:a2:a7:35:f0:1b:fb:41:52:91:b0:01:1b:02:30:
        61:f1:66:d0:48:d5:61:ed:45:f7:87:d4:24:ed:22:ba:fc:b4:
        e2:00:94:25:de:3d:9b:09:2c:7b:94:6f:f7:5e:1e:f6:d9:3b:
        6b:74:4c:b1:e3:0d:36:64:79:4c:d9:0e
-----BEGIN CERTIFICATE-----
MIICgjCCAgmgAwIBAgIBATAKBggqhkjOPQQDAjB6MREwDwYDVQQDDAhJU0VOIEFD
UjEPMA0GA1UECAwGRnJhbmNlMQswCQYDVQQGEwJGUjEpMCcGCSqGSIb3DQEJARYa
aHVnby5taWxsZXRAaXNlbi55bmNyZWEuZnIxDTALBgNVBAoMBElTRU4xDTALBgNV
BAsMBElTRU4wHhcNMjMwNDI3MTc1NzI5WhcNMjQwNDI2MTc1NzI5WjB6MREwDwYD
VQQDDAhJU0VOIEFDSTEPMA0GA1UECAwGRnJhbmNlMQswCQYDVQQGEwJGUjEpMCcG
CSqGSIb3DQEJARYaaHVnby5taWxsZXRAaXNlbi55bmNyZWEuZnIxDTALBgNVBAoM
BElTRU4xDTALBgNVBAsMBElTRU4wdjAQBgcqhkjOPQIBBgUrgQQAIgNiAASyL4sm
TIjgiso3Q2dZASS18D1LndSemiNeZFscJl+8RK4xEbzzL38EsRawlPh9+7wkWipm
k/9+hpjQE2pB7y+r1E/SnvGGm/Eljmdp4hy01yqKGaDtOKRuvI0P0s8eHeGjYzBh
MBIGA1UdEwEB/wQIMAYBAf8CAQAwCwYDVR0PBAQDAgKkMB0GA1UdDgQWBBTCVe3+
osxK2OQ6F4WapifFSbX8wzAfBgNVHSMEGDAWgBQbb4+hIS/u4RTCV2VJmuys6JM9
8DAKBggqhkjOPQQDAgNnADBkAjAGd6j3oJBAKyR48L31LsUWsPe4mF2Y7NqCHK4r
54hIaTsPeeqipzXwG/tBUpGwARsCMGHxZtBI1WHtRfeH1CTtIrr8tOIAlCXePZsJ
LHuUb/deHvbZO2t0TLHjDTZkeUzZDg==
-----END CERTIFICATE-----
