Certificate:
    Data:
        Version: 3 (0x2)
        Serial Number: 1 (0x1)
        Signature Algorithm: ecdsa-with-SHA256
        Issuer: CN=ISEN ACR, ST=France, C=FR/emailAddress=hugo.millet@isen.yncrea.fr, O=ISEN, OU=ISEN
        Validity
            Not Before: Apr 20 14:46:06 2023 GMT
            Not After : Apr 19 14:46:06 2024 GMT
        Subject: CN=ISEN ACI, ST=France, C=FR/emailAddress=hugo.millet@isen.yncrea.fr, O=ISEN, OU=ISEN
        Subject Public Key Info:
            Public Key Algorithm: id-ecPublicKey
                Public-Key: (384 bit)
                pub:
                    04:31:dd:99:46:97:c5:7b:66:d8:7b:2b:62:13:48:
                    a2:e3:7d:76:09:c9:ee:94:c9:94:81:a7:d7:cf:0e:
                    6d:90:61:96:4e:ed:35:23:45:d3:e0:f2:3c:6f:60:
                    b2:74:72:37:0c:9a:8a:26:84:cc:0e:77:0d:36:8b:
                    19:33:29:22:45:b9:59:4a:77:29:eb:10:5a:1c:ab:
                    9c:9d:7c:85:63:c4:73:86:c0:a4:73:5d:67:7c:10:
                    f3:bb:66:f0:af:b9:d8
                ASN1 OID: secp384r1
                NIST CURVE: P-384
        X509v3 extensions:
            X509v3 Basic Constraints: critical
                CA:TRUE, pathlen:3
            X509v3 Key Usage: 
                Digital Signature, Key Encipherment, Certificate Sign
            X509v3 Subject Key Identifier: 
                A7:E4:53:04:6C:30:EB:81:3A:49:9F:BC:C8:23:5F:0D:2F:59:B9:69
            X509v3 Authority Key Identifier: 
                B7:64:ED:08:FB:19:38:E5:FA:F8:85:E5:51:DC:2E:BE:93:81:2E:5F
    Signature Algorithm: ecdsa-with-SHA256
    Signature Value:
        30:66:02:31:00:a2:53:bf:de:7f:df:25:f5:89:be:17:4f:e8:
        d6:13:1a:26:bb:bb:3e:9e:7b:37:8f:42:65:ca:17:f3:b5:4a:
        1f:00:c2:07:57:c3:53:20:fa:14:72:46:da:aa:52:2e:fa:02:
        31:00:81:31:43:73:dc:16:a1:d2:b0:61:9e:da:a1:5b:eb:4a:
        15:10:49:77:90:ea:6d:49:ce:e9:c6:be:8d:d0:34:90:0f:1c:
        8b:b4:b8:ff:01:d0:e8:72:49:89:0c:f2:83:4f
-----BEGIN CERTIFICATE-----
MIIChDCCAgmgAwIBAgIBATAKBggqhkjOPQQDAjB6MREwDwYDVQQDDAhJU0VOIEFD
UjEPMA0GA1UECAwGRnJhbmNlMQswCQYDVQQGEwJGUjEpMCcGCSqGSIb3DQEJARYa
aHVnby5taWxsZXRAaXNlbi55bmNyZWEuZnIxDTALBgNVBAoMBElTRU4xDTALBgNV
BAsMBElTRU4wHhcNMjMwNDIwMTQ0NjA2WhcNMjQwNDE5MTQ0NjA2WjB6MREwDwYD
VQQDDAhJU0VOIEFDSTEPMA0GA1UECAwGRnJhbmNlMQswCQYDVQQGEwJGUjEpMCcG
CSqGSIb3DQEJARYaaHVnby5taWxsZXRAaXNlbi55bmNyZWEuZnIxDTALBgNVBAoM
BElTRU4xDTALBgNVBAsMBElTRU4wdjAQBgcqhkjOPQIBBgUrgQQAIgNiAAQx3ZlG
l8V7Zth7K2ITSKLjfXYJye6UyZSBp9fPDm2QYZZO7TUjRdPg8jxvYLJ0cjcMmoom
hMwOdw02ixkzKSJFuVlKdynrEFocq5ydfIVjxHOGwKRzXWd8EPO7ZvCvudijYzBh
MBIGA1UdEwEB/wQIMAYBAf8CAQMwCwYDVR0PBAQDAgKkMB0GA1UdDgQWBBSn5FME
bDDrgTpJn7zII18NL1m5aTAfBgNVHSMEGDAWgBS3ZO0I+xk45fr4heVR3C6+k4Eu
XzAKBggqhkjOPQQDAgNpADBmAjEAolO/3n/fJfWJvhdP6NYTGia7uz6eezePQmXK
F/O1Sh8AwgdXw1Mg+hRyRtqqUi76AjEAgTFDc9wWodKwYZ7aoVvrShUQSXeQ6m1J
zunGvo3QNJAPHIu0uP8B0OhySYkM8oNP
-----END CERTIFICATE-----
