Certificate:
    Data:
        Version: 3 (0x2)
        Serial Number: 1 (0x1)
        Signature Algorithm: ecdsa-with-SHA256
        Issuer: CN=ISEN ACR, ST=France, C=FR/emailAddress=hugo.millet@isen.yncrea.fr, O=ISEN, OU=ISEN
        Validity
            Not Before: Apr 25 17:44:30 2023 GMT
            Not After : Apr 24 17:44:30 2024 GMT
        Subject: CN=ISEN ACI, ST=France, C=FR/emailAddress=hugo.millet@isen.yncrea.fr, O=ISEN, OU=ISEN
        Subject Public Key Info:
            Public Key Algorithm: id-ecPublicKey
                Public-Key: (384 bit)
                pub:
                    04:8e:a1:4d:2d:47:5a:98:2c:26:55:b7:11:e2:59:
                    f1:af:af:8c:19:75:4e:7b:21:f1:b8:8e:51:a9:2e:
                    68:be:d4:a5:53:81:25:ca:23:d5:85:b2:2a:c2:07:
                    7b:11:02:57:14:f7:da:01:30:ef:70:70:df:fe:2c:
                    49:09:c4:b3:87:27:ac:f3:bb:e3:f1:f5:66:e2:42:
                    2e:e8:7a:58:b5:ee:8f:38:94:7e:31:fa:1c:dc:b7:
                    07:52:d5:b7:19:af:ee
                ASN1 OID: secp384r1
                NIST CURVE: P-384
        X509v3 extensions:
            X509v3 Basic Constraints: critical
                CA:TRUE, pathlen:0
            X509v3 Key Usage: 
                Digital Signature, Key Encipherment, Certificate Sign
            X509v3 Subject Key Identifier: 
                A7:3F:E2:AF:E8:CB:BF:F0:A3:26:B7:4E:5E:E7:64:0F:34:05:DF:41
            X509v3 Authority Key Identifier: 
                FF:D0:C7:74:3A:83:EC:C5:05:C4:86:D0:AD:9B:FD:C5:04:2B:2D:A5
    Signature Algorithm: ecdsa-with-SHA256
    Signature Value:
        30:65:02:30:12:6b:0e:f7:bf:60:0d:58:35:ef:93:4c:dc:a9:
        23:dd:8e:d2:ea:8e:e1:9d:96:72:cb:83:5a:4b:46:d3:1f:2d:
        ce:c9:08:ad:25:29:e9:22:d0:2e:24:07:7f:fe:6a:e7:02:31:
        00:f2:14:2e:ae:99:33:d9:9f:c3:c0:f0:51:fb:60:e4:d0:be:
        74:73:9e:b3:5a:2a:53:89:62:26:13:ec:07:ef:6b:1a:8f:26:
        77:5d:ad:9a:69:1d:72:f1:21:0b:12:15:22
-----BEGIN CERTIFICATE-----
MIICgzCCAgmgAwIBAgIBATAKBggqhkjOPQQDAjB6MREwDwYDVQQDDAhJU0VOIEFD
UjEPMA0GA1UECAwGRnJhbmNlMQswCQYDVQQGEwJGUjEpMCcGCSqGSIb3DQEJARYa
aHVnby5taWxsZXRAaXNlbi55bmNyZWEuZnIxDTALBgNVBAoMBElTRU4xDTALBgNV
BAsMBElTRU4wHhcNMjMwNDI1MTc0NDMwWhcNMjQwNDI0MTc0NDMwWjB6MREwDwYD
VQQDDAhJU0VOIEFDSTEPMA0GA1UECAwGRnJhbmNlMQswCQYDVQQGEwJGUjEpMCcG
CSqGSIb3DQEJARYaaHVnby5taWxsZXRAaXNlbi55bmNyZWEuZnIxDTALBgNVBAoM
BElTRU4xDTALBgNVBAsMBElTRU4wdjAQBgcqhkjOPQIBBgUrgQQAIgNiAASOoU0t
R1qYLCZVtxHiWfGvr4wZdU57IfG4jlGpLmi+1KVTgSXKI9WFsirCB3sRAlcU99oB
MO9wcN/+LEkJxLOHJ6zzu+Px9WbiQi7oeli17o84lH4x+hzctwdS1bcZr+6jYzBh
MBIGA1UdEwEB/wQIMAYBAf8CAQAwCwYDVR0PBAQDAgKkMB0GA1UdDgQWBBSnP+Kv
6Mu/8KMmt05e52QPNAXfQTAfBgNVHSMEGDAWgBT/0Md0OoPsxQXEhtCtm/3FBCst
pTAKBggqhkjOPQQDAgNoADBlAjASaw73v2ANWDXvk0zcqSPdjtLqjuGdlnLLg1pL
RtMfLc7JCK0lKeki0C4kB3/+aucCMQDyFC6umTPZn8PA8FH7YOTQvnRznrNaKlOJ
YiYT7AfvaxqPJnddrZppHXLxIQsSFSI=
-----END CERTIFICATE-----
