Certificate:
    Data:
        Version: 3 (0x2)
        Serial Number: 1 (0x1)
        Signature Algorithm: ecdsa-with-SHA256
        Issuer: CN=Common Name (eg, fully qualified host name), ST=State or Province Name (full name), C=FR/emailAddress=Email@Address, O=Organization Name (eg, company), OU=Organizational Unit Name (eg, section)
        Validity
            Not Before: Apr 20 12:51:14 2023 GMT
            Not After : Apr 19 12:51:14 2024 GMT
        Subject: CN=Common Name (eg, fully qualified host name), ST=State or Province Name (full name), C=FR/emailAddress=Email@Address, O=Organization Name (eg, company), OU=Organizational Unit Name (eg, section)
        Subject Public Key Info:
            Public Key Algorithm: id-ecPublicKey
                Public-Key: (384 bit)
                pub:
                    04:fc:23:98:86:88:5e:96:e9:86:44:21:ef:f5:65:
                    ef:24:3f:94:7d:38:fa:5e:34:bf:e7:b5:88:9f:50:
                    3c:e1:1f:d0:b0:d1:27:fb:b8:64:21:69:54:08:84:
                    57:05:cd:8a:47:08:cb:32:17:0d:f7:78:90:97:41:
                    68:55:89:d9:97:c6:53:b2:d5:d3:70:97:bf:83:bc:
                    55:f2:20:0d:c8:a8:78:51:f5:94:2f:6a:49:62:46:
                    c4:48:88:a5:2d:f5:21
                ASN1 OID: secp384r1
                NIST CURVE: P-384
        X509v3 extensions:
            X509v3 Basic Constraints: critical
                CA:TRUE
            X509v3 Key Usage: 
                Digital Signature, Key Encipherment
            X509v3 Subject Key Identifier: 
                E3:5C:23:20:0F:3D:FA:60:CC:14:F3:A4:BB:0E:09:BD:03:D8:1E:82
    Signature Algorithm: ecdsa-with-SHA256
    Signature Value:
        30:65:02:31:00:c1:fc:b2:2f:3e:e1:62:31:f4:87:d0:be:0b:
        0c:22:88:1d:23:fe:05:0a:0c:2b:1e:46:47:7b:fa:63:49:fe:
        63:b7:04:00:13:ce:69:3a:e9:38:91:c7:69:91:f5:76:b9:02:
        30:51:a5:0b:fb:47:56:b0:b4:7a:e1:e3:66:02:f9:b7:8c:ef:
        34:4a:ed:88:88:7a:25:e9:76:90:2e:cb:01:b9:dd:3e:f3:07:
        78:ba:e1:6e:2c:33:58:a2:e1:89:04:4c:cd
-----BEGIN CERTIFICATE-----
MIIDPzCCAsWgAwIBAgIBATAKBggqhkjOPQQDAjCB6TE0MDIGA1UEAwwrQ29tbW9u
IE5hbWUgKGVnLCBmdWxseSBxdWFsaWZpZWQgaG9zdCBuYW1lKTErMCkGA1UECAwi
U3RhdGUgb3IgUHJvdmluY2UgTmFtZSAoZnVsbCBuYW1lKTELMAkGA1UEBhMCRlIx
HDAaBgkqhkiG9w0BCQEWDUVtYWlsQEFkZHJlc3MxKDAmBgNVBAoMH09yZ2FuaXph
dGlvbiBOYW1lIChlZywgY29tcGFueSkxLzAtBgNVBAsMJk9yZ2FuaXphdGlvbmFs
IFVuaXQgTmFtZSAoZWcsIHNlY3Rpb24pMB4XDTIzMDQyMDEyNTExNFoXDTI0MDQx
OTEyNTExNFowgekxNDAyBgNVBAMMK0NvbW1vbiBOYW1lIChlZywgZnVsbHkgcXVh
bGlmaWVkIGhvc3QgbmFtZSkxKzApBgNVBAgMIlN0YXRlIG9yIFByb3ZpbmNlIE5h
bWUgKGZ1bGwgbmFtZSkxCzAJBgNVBAYTAkZSMRwwGgYJKoZIhvcNAQkBFg1FbWFp
bEBBZGRyZXNzMSgwJgYDVQQKDB9Pcmdhbml6YXRpb24gTmFtZSAoZWcsIGNvbXBh
bnkpMS8wLQYDVQQLDCZPcmdhbml6YXRpb25hbCBVbml0IE5hbWUgKGVnLCBzZWN0
aW9uKTB2MBAGByqGSM49AgEGBSuBBAAiA2IABPwjmIaIXpbphkQh7/Vl7yQ/lH04
+l40v+e1iJ9QPOEf0LDRJ/u4ZCFpVAiEVwXNikcIyzIXDfd4kJdBaFWJ2ZfGU7LV
03CXv4O8VfIgDcioeFH1lC9qSWJGxEiIpS31IaM/MD0wDwYDVR0TAQH/BAUwAwEB
/zALBgNVHQ8EBAMCBaAwHQYDVR0OBBYEFONcIyAPPfpgzBTzpLsOCb0D2B6CMAoG
CCqGSM49BAMCA2gAMGUCMQDB/LIvPuFiMfSH0L4LDCKIHSP+BQoMKx5GR3v6Y0n+
Y7cEABPOaTrpOJHHaZH1drkCMFGlC/tHVrC0euHjZgL5t4zvNErtiIh6Jel2kC7L
AbndPvMHeLrhbiwzWKLhiQRMzQ==
-----END CERTIFICATE-----
