Certificate:
    Data:
        Version: 3 (0x2)
        Serial Number: 1 (0x1)
        Signature Algorithm: ecdsa-with-SHA256
        Issuer: CN=ISEN ACR, ST=France, C=FR/emailAddress=hugo.millet@isen.yncrea.fr, O=ISEN, OU=ISEN
        Validity
            Not Before: Apr 28 13:03:08 2023 GMT
            Not After : Apr 27 13:03:08 2024 GMT
        Subject: CN=ISEN ACI, ST=France, C=FR/emailAddress=hugo.millet@isen.yncrea.fr, O=ISEN, OU=ISEN
        Subject Public Key Info:
            Public Key Algorithm: id-ecPublicKey
                Public-Key: (384 bit)
                pub:
                    04:65:24:3d:cb:63:ee:b3:0d:48:06:fc:64:34:00:
                    7d:35:5d:c2:91:4a:22:57:44:0a:16:9d:05:c5:27:
                    c2:be:f7:f1:a3:6c:3d:17:02:ea:63:c6:49:41:c2:
                    70:61:aa:f5:ca:85:a3:86:63:af:ee:50:ff:c5:a9:
                    b3:14:09:ad:25:0d:36:ae:68:31:3c:b3:5b:e1:a5:
                    82:d9:dd:24:89:f3:7d:76:7a:b1:10:22:36:4e:ac:
                    af:a8:0e:cf:e7:24:df
                ASN1 OID: secp384r1
                NIST CURVE: P-384
        X509v3 extensions:
            X509v3 Basic Constraints: critical
                CA:TRUE, pathlen:0
            X509v3 Key Usage: 
                Digital Signature, Key Encipherment, Certificate Sign
            X509v3 Subject Key Identifier: 
                AD:CA:FC:9E:24:D9:1D:DE:9A:9E:BC:83:1E:F1:6C:1B:96:88:5E:AF
            X509v3 Authority Key Identifier: 
                98:4A:E5:C0:42:88:F1:DE:78:F2:DF:3B:43:38:EB:1C:88:15:B8:33
    Signature Algorithm: ecdsa-with-SHA256
    Signature Value:
        30:64:02:30:31:3e:2d:06:14:1c:5e:12:ab:bd:43:9d:b6:91:
        2a:37:2a:71:d4:a7:01:9b:9b:ed:e0:e4:0a:e5:7f:2b:71:6d:
        63:75:6a:31:99:34:4e:11:89:93:4b:d5:69:d7:27:6d:02:30:
        46:da:68:90:47:2f:8a:ae:64:93:24:5e:ff:06:f5:40:08:11:
        14:30:3b:d8:11:be:c1:c9:dc:23:b0:10:80:53:ea:34:5b:6f:
        52:34:29:71:32:13:11:58:73:cf:f5:33
-----BEGIN CERTIFICATE-----
MIICgjCCAgmgAwIBAgIBATAKBggqhkjOPQQDAjB6MREwDwYDVQQDDAhJU0VOIEFD
UjEPMA0GA1UECAwGRnJhbmNlMQswCQYDVQQGEwJGUjEpMCcGCSqGSIb3DQEJARYa
aHVnby5taWxsZXRAaXNlbi55bmNyZWEuZnIxDTALBgNVBAoMBElTRU4xDTALBgNV
BAsMBElTRU4wHhcNMjMwNDI4MTMwMzA4WhcNMjQwNDI3MTMwMzA4WjB6MREwDwYD
VQQDDAhJU0VOIEFDSTEPMA0GA1UECAwGRnJhbmNlMQswCQYDVQQGEwJGUjEpMCcG
CSqGSIb3DQEJARYaaHVnby5taWxsZXRAaXNlbi55bmNyZWEuZnIxDTALBgNVBAoM
BElTRU4xDTALBgNVBAsMBElTRU4wdjAQBgcqhkjOPQIBBgUrgQQAIgNiAARlJD3L
Y+6zDUgG/GQ0AH01XcKRSiJXRAoWnQXFJ8K+9/GjbD0XAupjxklBwnBhqvXKhaOG
Y6/uUP/FqbMUCa0lDTauaDE8s1vhpYLZ3SSJ8312erEQIjZOrK+oDs/nJN+jYzBh
MBIGA1UdEwEB/wQIMAYBAf8CAQAwCwYDVR0PBAQDAgKkMB0GA1UdDgQWBBStyvye
JNkd3pqevIMe8WwbloherzAfBgNVHSMEGDAWgBSYSuXAQojx3njy3ztDOOsciBW4
MzAKBggqhkjOPQQDAgNnADBkAjAxPi0GFBxeEqu9Q522kSo3KnHUpwGbm+3g5Arl
fytxbWN1ajGZNE4RiZNL1WnXJ20CMEbaaJBHL4quZJMkXv8G9UAIERQwO9gRvsHJ
3COwEIBT6jRbb1I0KXEyExFYc8/1Mw==
-----END CERTIFICATE-----
