Certificate:
    Data:
        Version: 3 (0x2)
        Serial Number: 1 (0x1)
        Signature Algorithm: ecdsa-with-SHA256
        Issuer: CN=ISEN ACR, ST=France, C=FR/emailAddress=hugo.millet@isen.yncrea.fr, O=ISEN, OU=ISEN
        Validity
            Not Before: Apr 30 15:00:15 2023 GMT
            Not After : Apr 29 15:00:15 2024 GMT
        Subject: CN=ISEN ACI, ST=France, C=FR/emailAddress=hugo.millet@isen.yncrea.fr, O=ISEN, OU=ISEN
        Subject Public Key Info:
            Public Key Algorithm: id-ecPublicKey
                Public-Key: (256 bit)
                pub:
                    04:9e:c5:80:81:5a:ca:5d:1b:38:19:e4:52:fa:12:
                    84:53:a1:b4:c8:20:67:d5:7b:67:77:69:77:d3:23:
                    78:09:a3:aa:3e:ae:b7:70:21:d8:1f:cb:70:00:dc:
                    2a:5f:07:8d:e3:24:84:96:70:ed:fb:74:8f:bb:c3:
                    92:35:c8:84:c4
                ASN1 OID: prime256v1
                NIST CURVE: P-256
        X509v3 extensions:
            X509v3 Basic Constraints: critical
                CA:TRUE, pathlen:0
            Authority Information Access: 
                OCSP - URI:http://127.0.0.1:8888
            X509v3 Key Usage: 
                Digital Signature, Key Encipherment, Certificate Sign
            X509v3 Subject Key Identifier: 
                B6:7A:2D:7D:35:E0:E1:22:47:C1:48:2F:A5:4E:84:50:56:15:32:E5
            X509v3 Authority Key Identifier: 
                8E:04:38:28:D8:1A:CB:DF:D5:38:F0:F0:55:A5:1B:54:9B:CE:AC:E0
    Signature Algorithm: ecdsa-with-SHA256
    Signature Value:
        30:45:02:20:2c:ff:a0:72:9f:af:46:02:d7:b8:82:3f:90:40:
        41:6e:bb:85:ff:44:a0:b0:81:18:27:d1:63:ab:b4:b2:10:c5:
        02:21:00:f4:bd:9f:a1:a5:fd:6d:e0:84:74:73:f4:ab:ef:13:
        b8:74:dc:ee:cc:dc:fd:81:28:53:1f:3f:3c:53:4b:69:f2
-----BEGIN CERTIFICATE-----
MIICezCCAiGgAwIBAgIBATAKBggqhkjOPQQDAjB6MREwDwYDVQQDDAhJU0VOIEFD
UjEPMA0GA1UECAwGRnJhbmNlMQswCQYDVQQGEwJGUjEpMCcGCSqGSIb3DQEJARYa
aHVnby5taWxsZXRAaXNlbi55bmNyZWEuZnIxDTALBgNVBAoMBElTRU4xDTALBgNV
BAsMBElTRU4wHhcNMjMwNDMwMTUwMDE1WhcNMjQwNDI5MTUwMDE1WjB6MREwDwYD
VQQDDAhJU0VOIEFDSTEPMA0GA1UECAwGRnJhbmNlMQswCQYDVQQGEwJGUjEpMCcG
CSqGSIb3DQEJARYaaHVnby5taWxsZXRAaXNlbi55bmNyZWEuZnIxDTALBgNVBAoM
BElTRU4xDTALBgNVBAsMBElTRU4wWTATBgcqhkjOPQIBBggqhkjOPQMBBwNCAASe
xYCBWspdGzgZ5FL6EoRTobTIIGfVe2d3aXfTI3gJo6o+rrdwIdgfy3AA3CpfB43j
JISWcO37dI+7w5I1yITEo4GXMIGUMBIGA1UdEwEB/wQIMAYBAf8CAQAwMQYIKwYB
BQUHAQEEJTAjMCEGCCsGAQUFBzABhhVodHRwOi8vMTI3LjAuMC4xOjg4ODgwCwYD
VR0PBAQDAgKkMB0GA1UdDgQWBBS2ei19NeDhIkfBSC+lToRQVhUy5TAfBgNVHSME
GDAWgBSOBDgo2BrL39U48PBVpRtUm86s4DAKBggqhkjOPQQDAgNIADBFAiAs/6By
n69GAte4gj+QQEFuu4X/RKCwgRgn0WOrtLIQxQIhAPS9n6Gl/W3ghHRz9KvvE7h0
3O7M3P2BKFMfPzxTS2ny
-----END CERTIFICATE-----
