Certificate:
    Data:
        Version: 3 (0x2)
        Serial Number: 1 (0x1)
        Signature Algorithm: ecdsa-with-SHA256
        Issuer: CN=ISEN ACR, ST=France, C=FR/emailAddress=hugo.millet@isen.yncrea.fr, O=ISEN, OU=ISEN
        Validity
            Not Before: Apr 28 14:35:15 2023 GMT
            Not After : Apr 27 14:35:15 2024 GMT
        Subject: CN=ISEN ACI, ST=France, C=FR/emailAddress=hugo.millet@isen.yncrea.fr, O=ISEN, OU=ISEN
        Subject Public Key Info:
            Public Key Algorithm: id-ecPublicKey
                Public-Key: (384 bit)
                pub:
                    04:5d:db:46:47:82:57:d3:6a:71:f8:2d:29:6a:2b:
                    a2:09:f1:33:a1:e6:74:dd:cf:6d:16:85:97:3c:d1:
                    ad:9c:65:e8:06:1e:95:62:93:0a:a7:0a:ec:a8:ea:
                    b7:7f:5b:29:0d:ab:8d:68:ab:29:7b:16:0e:39:5f:
                    83:4c:97:29:cf:69:c5:77:f9:2a:7d:00:c3:7a:84:
                    63:43:85:ba:b5:4c:25:8f:51:5f:8d:9e:74:95:7b:
                    d9:e1:25:f8:d8:77:13
                ASN1 OID: secp384r1
                NIST CURVE: P-384
        X509v3 extensions:
            X509v3 Basic Constraints: critical
                CA:TRUE, pathlen:0
            Authority Information Access: 
                OCSP - URI:http://127.0.0.1:8888
            X509v3 Key Usage: 
                Digital Signature, Key Encipherment, Certificate Sign
            X509v3 Subject Key Identifier: 
                F1:46:B3:95:98:78:9E:CA:B2:A7:22:B7:37:CC:07:7E:A7:9D:A4:4A
            X509v3 Authority Key Identifier: 
                E3:3F:D0:3F:B6:60:CE:A5:EF:A9:11:A9:35:4E:BC:A8:84:61:B5:B1
    Signature Algorithm: ecdsa-with-SHA256
    Signature Value:
        30:64:02:30:1c:84:33:71:14:ce:b8:4b:a3:53:b1:42:ad:07:
        69:21:24:bb:58:23:da:e9:f1:92:d3:df:ec:18:7d:d7:1d:b8:
        5f:bf:b8:87:8e:61:92:94:1e:3e:f9:5d:f9:8a:d4:ed:02:30:
        49:ce:77:b5:2c:91:d6:b1:a7:62:bb:3e:e7:63:74:92:d2:0b:
        24:49:e5:1f:8f:ab:25:ae:cf:ad:f7:f1:06:ee:52:56:9d:7e:
        ab:1c:38:3f:56:64:35:74:58:0e:5a:bc
-----BEGIN CERTIFICATE-----
MIICtzCCAj6gAwIBAgIBATAKBggqhkjOPQQDAjB6MREwDwYDVQQDDAhJU0VOIEFD
UjEPMA0GA1UECAwGRnJhbmNlMQswCQYDVQQGEwJGUjEpMCcGCSqGSIb3DQEJARYa
aHVnby5taWxsZXRAaXNlbi55bmNyZWEuZnIxDTALBgNVBAoMBElTRU4xDTALBgNV
BAsMBElTRU4wHhcNMjMwNDI4MTQzNTE1WhcNMjQwNDI3MTQzNTE1WjB6MREwDwYD
VQQDDAhJU0VOIEFDSTEPMA0GA1UECAwGRnJhbmNlMQswCQYDVQQGEwJGUjEpMCcG
CSqGSIb3DQEJARYaaHVnby5taWxsZXRAaXNlbi55bmNyZWEuZnIxDTALBgNVBAoM
BElTRU4xDTALBgNVBAsMBElTRU4wdjAQBgcqhkjOPQIBBgUrgQQAIgNiAARd20ZH
glfTanH4LSlqK6IJ8TOh5nTdz20WhZc80a2cZegGHpVikwqnCuyo6rd/WykNq41o
qyl7Fg45X4NMlynPacV3+Sp9AMN6hGNDhbq1TCWPUV+NnnSVe9nhJfjYdxOjgZcw
gZQwEgYDVR0TAQH/BAgwBgEB/wIBADAxBggrBgEFBQcBAQQlMCMwIQYIKwYBBQUH
MAGGFWh0dHA6Ly8xMjcuMC4wLjE6ODg4ODALBgNVHQ8EBAMCAqQwHQYDVR0OBBYE
FPFGs5WYeJ7KsqcitzfMB36nnaRKMB8GA1UdIwQYMBaAFOM/0D+2YM6l76kRqTVO
vKiEYbWxMAoGCCqGSM49BAMCA2cAMGQCMByEM3EUzrhLo1OxQq0HaSEku1gj2unx
ktPf7Bh91x24X7+4h45hkpQePvld+YrU7QIwSc53tSyR1rGnYrs+52N0ktILJEnl
H4+rJa7PrffxBu5SVp1+qxw4P1ZkNXRYDlq8
-----END CERTIFICATE-----
