Certificate:
    Data:
        Version: 3 (0x2)
        Serial Number: 1 (0x1)
        Signature Algorithm: ecdsa-with-SHA256
        Issuer: CN=ISEN ACR, ST=France, C=FR/emailAddress=hugo.millet@isen.yncrea.fr, O=ISEN, OU=ISEN
        Validity
            Not Before: Apr 23 19:04:07 2023 GMT
            Not After : Apr 22 19:04:07 2024 GMT
        Subject: CN=ISEN ACI, ST=France, C=FR/emailAddress=hugo.millet@isen.yncrea.fr, O=ISEN, OU=ISEN
        Subject Public Key Info:
            Public Key Algorithm: id-ecPublicKey
                Public-Key: (384 bit)
                pub:
                    04:9f:17:46:86:6f:d5:f1:82:31:02:1d:30:07:8f:
                    7b:29:a1:e3:e9:ae:d1:46:01:f1:3f:7a:a7:3f:2b:
                    0d:23:02:e5:4a:f4:45:87:ec:93:a0:68:4d:ad:f9:
                    00:1c:b5:0f:5d:46:1a:16:52:ed:95:21:94:9d:1d:
                    97:cb:32:40:25:3e:93:b4:97:6a:c2:89:82:55:a7:
                    8e:e7:fe:e0:0b:71:8c:9f:cd:f5:73:d3:49:7f:97:
                    26:2c:44:94:d4:a2:5a
                ASN1 OID: secp384r1
                NIST CURVE: P-384
        X509v3 extensions:
            X509v3 Basic Constraints: critical
                CA:TRUE, pathlen:0
            X509v3 Key Usage: 
                Digital Signature, Key Encipherment, Certificate Sign
            X509v3 Subject Key Identifier: 
                C3:0C:F6:37:3A:05:3A:23:91:CA:42:52:62:CD:D4:A9:1E:F5:4B:3C
            X509v3 Authority Key Identifier: 
                1C:CB:56:22:70:FA:40:6E:FD:BA:53:00:7F:D1:C9:ED:AB:26:DB:1F
    Signature Algorithm: ecdsa-with-SHA256
    Signature Value:
        30:64:02:30:2b:01:ae:fc:2c:f0:91:e0:3a:c7:95:c6:d8:a3:
        01:2a:9c:a9:d5:51:1c:fa:54:a4:a6:b6:6f:a7:dd:1d:ea:84:
        39:53:cf:59:5e:29:39:91:d8:15:ca:08:e4:7f:53:bd:02:30:
        6c:2a:cd:09:10:b8:19:1e:aa:0f:85:83:5c:83:a7:b8:eb:21:
        55:fd:e0:ca:59:66:17:67:c3:9a:b9:40:1b:7d:fb:8c:ff:d3:
        87:32:48:19:d8:31:72:2c:2a:dc:63:eb
-----BEGIN CERTIFICATE-----
MIICgjCCAgmgAwIBAgIBATAKBggqhkjOPQQDAjB6MREwDwYDVQQDDAhJU0VOIEFD
UjEPMA0GA1UECAwGRnJhbmNlMQswCQYDVQQGEwJGUjEpMCcGCSqGSIb3DQEJARYa
aHVnby5taWxsZXRAaXNlbi55bmNyZWEuZnIxDTALBgNVBAoMBElTRU4xDTALBgNV
BAsMBElTRU4wHhcNMjMwNDIzMTkwNDA3WhcNMjQwNDIyMTkwNDA3WjB6MREwDwYD
VQQDDAhJU0VOIEFDSTEPMA0GA1UECAwGRnJhbmNlMQswCQYDVQQGEwJGUjEpMCcG
CSqGSIb3DQEJARYaaHVnby5taWxsZXRAaXNlbi55bmNyZWEuZnIxDTALBgNVBAoM
BElTRU4xDTALBgNVBAsMBElTRU4wdjAQBgcqhkjOPQIBBgUrgQQAIgNiAASfF0aG
b9XxgjECHTAHj3spoePprtFGAfE/eqc/Kw0jAuVK9EWH7JOgaE2t+QActQ9dRhoW
Uu2VIZSdHZfLMkAlPpO0l2rCiYJVp47n/uALcYyfzfVz00l/lyYsRJTUolqjYzBh
MBIGA1UdEwEB/wQIMAYBAf8CAQAwCwYDVR0PBAQDAgKkMB0GA1UdDgQWBBTDDPY3
OgU6I5HKQlJizdSpHvVLPDAfBgNVHSMEGDAWgBQcy1YicPpAbv26UwB/0cntqybb
HzAKBggqhkjOPQQDAgNnADBkAjArAa78LPCR4DrHlcbYowEqnKnVURz6VKSmtm+n
3R3qhDlTz1leKTmR2BXKCOR/U70CMGwqzQkQuBkeqg+Fg1yDp7jrIVX94MpZZhdn
w5q5QBt9+4z/04cySBnYMXIsKtxj6w==
-----END CERTIFICATE-----
