Certificate:
    Data:
        Version: 3 (0x2)
        Serial Number: 1 (0x1)
        Signature Algorithm: ecdsa-with-SHA256
        Issuer: CN=ISEN ACR, ST=France, C=FR/emailAddress=hugo.millet@isen.yncrea.fr, O=ISEN, OU=ISEN
        Validity
            Not Before: Apr 30 12:05:17 2023 GMT
            Not After : Apr 29 12:05:17 2024 GMT
        Subject: CN=ISEN ACI, ST=France, C=FR/emailAddress=hugo.millet@isen.yncrea.fr, O=ISEN, OU=ISEN
        Subject Public Key Info:
            Public Key Algorithm: id-ecPublicKey
                Public-Key: (384 bit)
                pub:
                    04:ce:bf:a7:0c:d0:17:3b:f7:bc:5b:17:72:ab:fe:
                    82:2b:58:62:ba:fb:83:a8:5f:fd:ef:e2:bc:05:6e:
                    e6:a5:78:14:ff:53:64:59:e9:48:59:4e:69:42:fd:
                    b9:81:ce:34:8f:f8:87:e3:b3:cf:66:64:60:e8:a4:
                    56:da:c7:2b:1f:4f:34:32:b7:78:8f:87:a9:02:47:
                    c0:49:9f:ed:cc:4b:f4:e3:98:fc:9d:e5:d0:a5:61:
                    d1:07:d0:27:65:e0:ab
                ASN1 OID: secp384r1
                NIST CURVE: P-384
        X509v3 extensions:
            X509v3 Basic Constraints: critical
                CA:TRUE, pathlen:0
            Authority Information Access: 
                OCSP - URI:http://127.0.0.1:8888
            X509v3 Key Usage: 
                Digital Signature, Key Encipherment, Certificate Sign
            X509v3 Subject Key Identifier: 
                7B:B7:23:42:1B:41:21:76:BF:22:AE:D4:58:44:59:E2:D7:08:45:37
            X509v3 Authority Key Identifier: 
                41:E1:24:6F:8F:18:D4:4C:D4:A5:8E:B8:04:75:CD:27:D6:B0:1F:6D
    Signature Algorithm: ecdsa-with-SHA256
    Signature Value:
        30:65:02:31:00:91:a7:36:d4:7f:bf:b2:1c:55:db:0f:7c:df:
        36:a5:64:fb:ed:2f:79:b2:af:b4:8a:a5:3e:21:5f:66:dd:ea:
        2d:4d:7a:25:c9:6a:9f:2b:4f:b9:74:14:be:b8:e2:9d:72:02:
        30:1e:55:f0:e4:02:f0:82:45:f4:75:b1:9c:2f:73:3d:e5:57:
        f8:f8:1b:93:ed:d9:19:2f:45:94:07:64:47:45:8c:d6:84:8b:
        74:f7:f9:3f:56:cb:88:56:f1:0c:a6:80:e6
-----BEGIN CERTIFICATE-----
MIICuDCCAj6gAwIBAgIBATAKBggqhkjOPQQDAjB6MREwDwYDVQQDDAhJU0VOIEFD
UjEPMA0GA1UECAwGRnJhbmNlMQswCQYDVQQGEwJGUjEpMCcGCSqGSIb3DQEJARYa
aHVnby5taWxsZXRAaXNlbi55bmNyZWEuZnIxDTALBgNVBAoMBElTRU4xDTALBgNV
BAsMBElTRU4wHhcNMjMwNDMwMTIwNTE3WhcNMjQwNDI5MTIwNTE3WjB6MREwDwYD
VQQDDAhJU0VOIEFDSTEPMA0GA1UECAwGRnJhbmNlMQswCQYDVQQGEwJGUjEpMCcG
CSqGSIb3DQEJARYaaHVnby5taWxsZXRAaXNlbi55bmNyZWEuZnIxDTALBgNVBAoM
BElTRU4xDTALBgNVBAsMBElTRU4wdjAQBgcqhkjOPQIBBgUrgQQAIgNiAATOv6cM
0Bc797xbF3Kr/oIrWGK6+4OoX/3v4rwFbualeBT/U2RZ6UhZTmlC/bmBzjSP+Ifj
s89mZGDopFbaxysfTzQyt3iPh6kCR8BJn+3MS/TjmPyd5dClYdEH0Cdl4KujgZcw
gZQwEgYDVR0TAQH/BAgwBgEB/wIBADAxBggrBgEFBQcBAQQlMCMwIQYIKwYBBQUH
MAGGFWh0dHA6Ly8xMjcuMC4wLjE6ODg4ODALBgNVHQ8EBAMCAqQwHQYDVR0OBBYE
FHu3I0IbQSF2vyKu1FhEWeLXCEU3MB8GA1UdIwQYMBaAFEHhJG+PGNRM1KWOuAR1
zSfWsB9tMAoGCCqGSM49BAMCA2gAMGUCMQCRpzbUf7+yHFXbD3zfNqVk++0vebKv
tIqlPiFfZt3qLU16JclqnytPuXQUvrjinXICMB5V8OQC8IJF9HWxnC9zPeVX+Pgb
k+3ZGS9FlAdkR0WM1oSLdPf5P1bLiFbxDKaA5g==
-----END CERTIFICATE-----
