Certificate:
    Data:
        Version: 3 (0x2)
        Serial Number: 1 (0x1)
        Signature Algorithm: ecdsa-with-SHA256
        Issuer: CN=ISEN ACR, ST=France, C=FR/emailAddress=hugo.millet@isen.yncrea.fr, O=ISEN, OU=ISEN
        Validity
            Not Before: Apr 23 08:45:59 2023 GMT
            Not After : Apr 22 08:45:59 2024 GMT
        Subject: CN=ISEN ACI, ST=France, C=FR/emailAddress=hugo.millet@isen.yncrea.fr, O=ISEN, OU=ISEN
        Subject Public Key Info:
            Public Key Algorithm: id-ecPublicKey
                Public-Key: (384 bit)
                pub:
                    04:82:4f:8e:9b:9e:09:4f:06:51:69:d1:87:36:b2:
                    35:8e:20:d5:f8:e2:45:9f:36:3b:0a:97:b3:6f:ba:
                    24:03:7d:39:ab:c8:08:01:9a:18:e0:5a:59:34:54:
                    46:7e:18:da:e1:df:19:12:c0:3b:1d:5a:cc:50:a5:
                    4e:2a:b2:88:03:b8:3e:ee:e4:b9:85:df:bb:eb:96:
                    6b:62:87:93:82:98:e2:4c:b5:32:69:c9:65:f4:26:
                    01:9f:96:0b:22:86:a5
                ASN1 OID: secp384r1
                NIST CURVE: P-384
        X509v3 extensions:
            X509v3 Basic Constraints: critical
                CA:TRUE, pathlen:0
            X509v3 Key Usage: 
                Digital Signature, Key Encipherment, Certificate Sign
            X509v3 Subject Key Identifier: 
                C4:5A:3A:1D:2A:60:D2:09:DF:3D:20:66:FA:42:15:00:04:F5:17:03
            X509v3 Authority Key Identifier: 
                2B:B6:EE:F5:AC:66:FB:65:74:96:C3:64:25:F3:A8:BB:16:C2:CC:C4
    Signature Algorithm: ecdsa-with-SHA256
    Signature Value:
        30:66:02:31:00:dc:6d:b8:f1:41:2d:13:bc:30:1e:7a:c6:33:
        05:fd:1d:74:9c:d5:09:e9:58:0c:a7:71:d4:bb:61:a2:47:67:
        a6:50:77:af:d3:85:63:1c:18:7b:f4:b0:ef:95:7c:ce:d9:02:
        31:00:93:92:6d:1f:0d:78:56:0e:ed:c6:64:e6:c4:f3:9d:a6:
        5e:f0:17:b1:cf:dc:07:a0:2d:02:e2:12:c5:74:d9:7c:4f:7b:
        8d:ac:05:b5:57:fb:be:34:6d:d6:31:28:de:c6
-----BEGIN CERTIFICATE-----
MIIChDCCAgmgAwIBAgIBATAKBggqhkjOPQQDAjB6MREwDwYDVQQDDAhJU0VOIEFD
UjEPMA0GA1UECAwGRnJhbmNlMQswCQYDVQQGEwJGUjEpMCcGCSqGSIb3DQEJARYa
aHVnby5taWxsZXRAaXNlbi55bmNyZWEuZnIxDTALBgNVBAoMBElTRU4xDTALBgNV
BAsMBElTRU4wHhcNMjMwNDIzMDg0NTU5WhcNMjQwNDIyMDg0NTU5WjB6MREwDwYD
VQQDDAhJU0VOIEFDSTEPMA0GA1UECAwGRnJhbmNlMQswCQYDVQQGEwJGUjEpMCcG
CSqGSIb3DQEJARYaaHVnby5taWxsZXRAaXNlbi55bmNyZWEuZnIxDTALBgNVBAoM
BElTRU4xDTALBgNVBAsMBElTRU4wdjAQBgcqhkjOPQIBBgUrgQQAIgNiAASCT46b
nglPBlFp0Yc2sjWOINX44kWfNjsKl7NvuiQDfTmryAgBmhjgWlk0VEZ+GNrh3xkS
wDsdWsxQpU4qsogDuD7u5LmF37vrlmtih5OCmOJMtTJpyWX0JgGflgsihqWjYzBh
MBIGA1UdEwEB/wQIMAYBAf8CAQAwCwYDVR0PBAQDAgKkMB0GA1UdDgQWBBTEWjod
KmDSCd89IGb6QhUABPUXAzAfBgNVHSMEGDAWgBQrtu71rGb7ZXSWw2Ql86i7FsLM
xDAKBggqhkjOPQQDAgNpADBmAjEA3G248UEtE7wwHnrGMwX9HXSc1QnpWAyncdS7
YaJHZ6ZQd6/ThWMcGHv0sO+VfM7ZAjEAk5JtHw14Vg7txmTmxPOdpl7wF7HP3Aeg
LQLiEsV02XxPe42sBbVX+740bdYxKN7G
-----END CERTIFICATE-----
