Certificate:
    Data:
        Version: 3 (0x2)
        Serial Number: 1 (0x1)
        Signature Algorithm: ecdsa-with-SHA256
        Issuer: CN=Common Name (eg, fully qualified host name), ST=State or Province Name (full name), C=FR/emailAddress=Email@Address, O=Organization Name (eg, company), OU=Organizational Unit Name (eg, section)
        Validity
            Not Before: Apr 20 12:51:47 2023 GMT
            Not After : Apr 19 12:51:47 2024 GMT
        Subject: CN=isen, ST=France/emailAddress=hugo.millet@isen.yncrea.fr, O=isen, OU=isen
        Subject Public Key Info:
            Public Key Algorithm: id-ecPublicKey
                Public-Key: (384 bit)
                pub:
                    04:db:a5:c6:1a:a0:5b:cb:5d:83:0e:d6:b0:a8:be:
                    bc:6e:94:c8:fb:9a:41:46:62:f3:34:dc:c4:48:f0:
                    2c:29:b9:5d:0c:8f:b9:17:e5:33:bc:a4:ba:a9:b4:
                    a6:9c:4d:4c:52:ad:5c:69:66:0e:f4:e5:a2:e8:58:
                    b1:90:68:99:5b:49:c4:7f:3c:db:4f:3e:9a:ea:c5:
                    84:ea:75:c9:95:4e:29:33:88:73:33:10:4e:4e:a0:
                    ae:4c:7c:a8:07:8f:a1
                ASN1 OID: secp384r1
                NIST CURVE: P-384
        X509v3 extensions:
            X509v3 Basic Constraints: critical
                CA:TRUE
            X509v3 Subject Alternative Name: 
                DNS:intermediateCA.example.com, IP Address:192.168.0.1
            X509v3 Subject Key Identifier: 
                31:F1:39:D0:E8:91:5A:CD:58:92:83:73:A9:94:1B:06:C3:F9:C6:DB
            X509v3 Authority Key Identifier: 
                E3:5C:23:20:0F:3D:FA:60:CC:14:F3:A4:BB:0E:09:BD:03:D8:1E:82
    Signature Algorithm: ecdsa-with-SHA256
    Signature Value:
        30:65:02:31:00:b7:43:37:d2:0e:3f:d6:f4:7a:e7:bf:55:e6:
        0b:18:12:4a:dc:dd:85:3a:52:5a:e4:50:07:fc:aa:2a:2d:7e:
        d4:17:68:65:9a:e6:14:9d:2f:ac:1e:55:4e:6b:49:24:2b:02:
        30:18:e6:06:4f:d8:e7:56:38:d1:9b:65:1a:3d:65:07:23:a7:
        90:de:20:be:94:ea:71:24:f2:7f:5a:5a:7a:da:5c:0a:7c:26:
        04:4b:63:c2:f1:1e:e5:3a:dd:a1:8d:65:9c
-----BEGIN CERTIFICATE-----
MIIDADCCAoagAwIBAgIBATAKBggqhkjOPQQDAjCB6TE0MDIGA1UEAwwrQ29tbW9u
IE5hbWUgKGVnLCBmdWxseSBxdWFsaWZpZWQgaG9zdCBuYW1lKTErMCkGA1UECAwi
U3RhdGUgb3IgUHJvdmluY2UgTmFtZSAoZnVsbCBuYW1lKTELMAkGA1UEBhMCRlIx
HDAaBgkqhkiG9w0BCQEWDUVtYWlsQEFkZHJlc3MxKDAmBgNVBAoMH09yZ2FuaXph
dGlvbiBOYW1lIChlZywgY29tcGFueSkxLzAtBgNVBAsMJk9yZ2FuaXphdGlvbmFs
IFVuaXQgTmFtZSAoZWcsIHNlY3Rpb24pMB4XDTIzMDQyMDEyNTE0N1oXDTI0MDQx
OTEyNTE0N1owaTENMAsGA1UEAwwEaXNlbjEPMA0GA1UECAwGRnJhbmNlMSkwJwYJ
KoZIhvcNAQkBFhpodWdvLm1pbGxldEBpc2VuLnluY3JlYS5mcjENMAsGA1UECgwE
aXNlbjENMAsGA1UECwwEaXNlbjB2MBAGByqGSM49AgEGBSuBBAAiA2IABNulxhqg
W8tdgw7WsKi+vG6UyPuaQUZi8zTcxEjwLCm5XQyPuRflM7ykuqm0ppxNTFKtXGlm
DvTlouhYsZBomVtJxH88208+murFhOp1yZVOKTOIczMQTk6grkx8qAePoaOBgDB+
MA8GA1UdEwEB/wQFMAMBAf8wKwYDVR0RBCQwIoIaaW50ZXJtZWRpYXRlQ0EuZXhh
bXBsZS5jb22HBMCoAAEwHQYDVR0OBBYEFDHxOdDokVrNWJKDc6mUGwbD+cbbMB8G
A1UdIwQYMBaAFONcIyAPPfpgzBTzpLsOCb0D2B6CMAoGCCqGSM49BAMCA2gAMGUC
MQC3QzfSDj/W9Hrnv1XmCxgSStzdhTpSWuRQB/yqKi1+1BdoZZrmFJ0vrB5VTmtJ
JCsCMBjmBk/Y51Y40ZtlGj1lByOnkN4gvpTqcSTyf1paetpcCnwmBEtjwvEe5Trd
oY1lnA==
-----END CERTIFICATE-----
