Certificate:
    Data:
        Version: 3 (0x2)
        Serial Number: 1 (0x1)
        Signature Algorithm: ecdsa-with-SHA256
        Issuer: CN=ISEN ACR, ST=France, C=FR/emailAddress=hugo.millet@isen.yncrea.fr, O=ISEN, OU=ISEN
        Validity
            Not Before: Apr 20 13:59:38 2023 GMT
            Not After : Apr 19 13:59:38 2024 GMT
        Subject: CN=ISEN ACI, ST=France, C=FR/emailAddress=hugo.millet@isen.yncrea.fr, O=ISEN, OU=ISEN
        Subject Public Key Info:
            Public Key Algorithm: id-ecPublicKey
                Public-Key: (384 bit)
                pub:
                    04:6d:81:2d:78:e1:98:59:aa:ef:55:c1:2e:73:c2:
                    f9:4c:4a:ad:50:e9:fa:a8:c3:7e:af:86:b9:73:a2:
                    06:13:77:95:34:d6:b9:d1:ce:34:9d:28:df:cc:67:
                    14:75:33:f9:29:7e:e4:80:50:37:eb:dd:80:35:8d:
                    1c:ac:e6:ae:c2:a4:ad:51:ec:d4:9b:a3:75:54:8f:
                    a6:52:62:83:30:6b:98:38:ec:fd:c6:96:f3:14:8c:
                    4d:bc:7f:5c:53:10:71
                ASN1 OID: secp384r1
                NIST CURVE: P-384
        X509v3 extensions:
            X509v3 Basic Constraints: critical
                CA:TRUE
            X509v3 Key Usage: 
                Digital Signature, Key Encipherment
            X509v3 Subject Key Identifier: 
                37:C1:B0:9A:11:F5:D0:5B:43:B3:15:DF:88:3D:9B:A4:13:66:6C:1A
            X509v3 Authority Key Identifier: 
                F9:E4:B7:62:49:98:98:9E:FD:2D:11:7D:93:0A:D6:60:EF:FA:B7:84
    Signature Algorithm: ecdsa-with-SHA256
    Signature Value:
        30:66:02:31:00:fd:2a:fa:4f:2e:5a:d1:28:b5:86:2b:5b:4b:
        c0:06:0b:5e:55:77:f1:e2:6e:cf:50:52:41:38:f0:cb:2a:bb:
        18:42:a6:f0:78:d4:21:e2:55:93:a8:09:e9:a4:48:7b:57:02:
        31:00:cd:a1:74:d8:0b:39:f5:88:63:99:30:a4:59:21:90:cc:
        a6:ff:02:0a:be:98:12:be:8d:50:c9:0f:f5:4e:90:4a:13:92:
        13:0c:5d:fd:0d:4b:e9:05:49:3a:4e:f6:5e:56
-----BEGIN CERTIFICATE-----
MIICgTCCAgagAwIBAgIBATAKBggqhkjOPQQDAjB6MREwDwYDVQQDDAhJU0VOIEFD
UjEPMA0GA1UECAwGRnJhbmNlMQswCQYDVQQGEwJGUjEpMCcGCSqGSIb3DQEJARYa
aHVnby5taWxsZXRAaXNlbi55bmNyZWEuZnIxDTALBgNVBAoMBElTRU4xDTALBgNV
BAsMBElTRU4wHhcNMjMwNDIwMTM1OTM4WhcNMjQwNDE5MTM1OTM4WjB6MREwDwYD
VQQDDAhJU0VOIEFDSTEPMA0GA1UECAwGRnJhbmNlMQswCQYDVQQGEwJGUjEpMCcG
CSqGSIb3DQEJARYaaHVnby5taWxsZXRAaXNlbi55bmNyZWEuZnIxDTALBgNVBAoM
BElTRU4xDTALBgNVBAsMBElTRU4wdjAQBgcqhkjOPQIBBgUrgQQAIgNiAARtgS14
4ZhZqu9VwS5zwvlMSq1Q6fqow36vhrlzogYTd5U01rnRzjSdKN/MZxR1M/kpfuSA
UDfr3YA1jRys5q7CpK1R7NSbo3VUj6ZSYoMwa5g47P3GlvMUjE28f1xTEHGjYDBe
MA8GA1UdEwEB/wQFMAMBAf8wCwYDVR0PBAQDAgWgMB0GA1UdDgQWBBQ3wbCaEfXQ
W0OzFd+IPZukE2ZsGjAfBgNVHSMEGDAWgBT55LdiSZiYnv0tEX2TCtZg7/q3hDAK
BggqhkjOPQQDAgNpADBmAjEA/Sr6Ty5a0Si1hitbS8AGC15Vd/Hibs9QUkE48Msq
uxhCpvB41CHiVZOoCemkSHtXAjEAzaF02As59YhjmTCkWSGQzKb/Agq+mBK+jVDJ
D/VOkEoTkhMMXf0NS+kFSTpO9l5W
-----END CERTIFICATE-----
