Certificate:
    Data:
        Version: 3 (0x2)
        Serial Number: 1 (0x1)
        Signature Algorithm: ecdsa-with-SHA256
        Issuer: CN=ISEN ACR, ST=France, C=FR/emailAddress=hugo.millet@isen.yncrea.fr, O=ISEN, OU=ISEN
        Validity
            Not Before: Apr 23 18:24:21 2023 GMT
            Not After : Apr 22 18:24:21 2024 GMT
        Subject: CN=ISEN ACI, ST=France, C=FR/emailAddress=hugo.millet@isen.yncrea.fr, O=ISEN, OU=ISEN
        Subject Public Key Info:
            Public Key Algorithm: id-ecPublicKey
                Public-Key: (384 bit)
                pub:
                    04:52:c6:01:c2:6b:b7:8b:25:33:7e:31:fa:50:f0:
                    8d:c8:cc:28:b5:c5:30:20:28:a0:25:0e:41:15:53:
                    1c:52:d3:d8:9d:a8:4d:d4:15:35:ca:9c:87:df:c5:
                    f7:21:c5:3f:61:a3:17:8e:6b:dc:43:fd:98:2c:57:
                    fd:cc:8d:b6:e2:35:61:75:17:5c:f6:2a:cb:c6:6c:
                    88:7c:3a:9b:4e:d3:e3:82:d8:aa:46:18:fb:1a:e0:
                    5d:95:89:2b:cb:31:e6
                ASN1 OID: secp384r1
                NIST CURVE: P-384
        X509v3 extensions:
            X509v3 Basic Constraints: critical
                CA:TRUE, pathlen:0
            X509v3 Key Usage: 
                Digital Signature, Key Encipherment, Certificate Sign
            X509v3 Subject Key Identifier: 
                00:94:B3:48:1A:4B:A8:C1:C1:4A:A3:D7:AD:B5:C9:8B:7B:8F:59:AF
            X509v3 Authority Key Identifier: 
                D9:3C:24:53:17:F4:D3:2C:C2:35:F8:5C:6F:88:FB:0B:41:2C:C7:31
    Signature Algorithm: ecdsa-with-SHA256
    Signature Value:
        30:66:02:31:00:8b:3e:c6:9d:59:66:9d:1e:46:e5:82:dd:1e:
        56:4a:f0:05:be:37:65:54:c9:7b:01:b0:90:ef:93:53:cd:92:
        6b:cc:d9:36:83:1f:96:c6:78:21:52:8f:c7:fe:b1:ec:cf:02:
        31:00:df:e6:fb:7f:6e:a8:02:2b:16:0b:f5:17:1d:7c:78:b1:
        7e:23:87:35:16:78:96:8e:4d:4d:fc:1d:73:44:52:db:1e:02:
        fc:89:4e:1d:b2:99:db:17:f1:4b:f0:f4:6f:a5
-----BEGIN CERTIFICATE-----
MIIChDCCAgmgAwIBAgIBATAKBggqhkjOPQQDAjB6MREwDwYDVQQDDAhJU0VOIEFD
UjEPMA0GA1UECAwGRnJhbmNlMQswCQYDVQQGEwJGUjEpMCcGCSqGSIb3DQEJARYa
aHVnby5taWxsZXRAaXNlbi55bmNyZWEuZnIxDTALBgNVBAoMBElTRU4xDTALBgNV
BAsMBElTRU4wHhcNMjMwNDIzMTgyNDIxWhcNMjQwNDIyMTgyNDIxWjB6MREwDwYD
VQQDDAhJU0VOIEFDSTEPMA0GA1UECAwGRnJhbmNlMQswCQYDVQQGEwJGUjEpMCcG
CSqGSIb3DQEJARYaaHVnby5taWxsZXRAaXNlbi55bmNyZWEuZnIxDTALBgNVBAoM
BElTRU4xDTALBgNVBAsMBElTRU4wdjAQBgcqhkjOPQIBBgUrgQQAIgNiAARSxgHC
a7eLJTN+MfpQ8I3IzCi1xTAgKKAlDkEVUxxS09idqE3UFTXKnIffxfchxT9hoxeO
a9xD/ZgsV/3MjbbiNWF1F1z2KsvGbIh8OptO0+OC2KpGGPsa4F2ViSvLMeajYzBh
MBIGA1UdEwEB/wQIMAYBAf8CAQAwCwYDVR0PBAQDAgKkMB0GA1UdDgQWBBQAlLNI
GkuowcFKo9ettcmLe49ZrzAfBgNVHSMEGDAWgBTZPCRTF/TTLMI1+FxviPsLQSzH
MTAKBggqhkjOPQQDAgNpADBmAjEAiz7GnVlmnR5G5YLdHlZK8AW+N2VUyXsBsJDv
k1PNkmvM2TaDH5bGeCFSj8f+sezPAjEA3+b7f26oAisWC/UXHXx4sX4jhzUWeJaO
TU38HXNEUtseAvyJTh2ymdsX8Uvw9G+l
-----END CERTIFICATE-----
