Certificate:
    Data:
        Version: 3 (0x2)
        Serial Number: 1 (0x1)
        Signature Algorithm: ecdsa-with-SHA256
        Issuer: CN=ISEN, ST=France, C=FR/emailAddress=hugo.millet@isen.yncrea.fr, O=ISEN, OU=ISEN
        Validity
            Not Before: Apr 20 13:52:28 2023 GMT
            Not After : Apr 19 13:52:28 2024 GMT
        Subject: CN=ISEN, ST=France, C=FR/emailAddress=hugo.millet@isen.yncrea.fr, O=ISEN, OU=ISEN
        Subject Public Key Info:
            Public Key Algorithm: id-ecPublicKey
                Public-Key: (384 bit)
                pub:
                    04:bf:49:11:bf:b2:f1:26:dc:31:7f:30:a2:86:c8:
                    fd:12:df:ae:3d:41:15:8b:24:ee:d9:6f:0d:92:e3:
                    fc:50:f8:be:db:6f:99:d1:81:d9:70:f3:dc:fb:7a:
                    9b:98:be:6d:28:b2:45:ce:84:24:47:dd:76:77:a3:
                    c9:a9:ca:98:1f:71:dc:9e:b0:1d:17:14:22:96:c1:
                    d7:f6:27:52:23:9c:71:a7:e2:99:d7:29:8c:f5:d8:
                    bd:7e:6c:bc:f7:d0:e2
                ASN1 OID: secp384r1
                NIST CURVE: P-384
        X509v3 extensions:
            X509v3 Basic Constraints: critical
                CA:TRUE
            X509v3 Key Usage: 
                Digital Signature, Key Encipherment
            X509v3 Subject Key Identifier: 
                96:BB:CE:AF:E5:F2:AD:98:50:B2:FE:DB:FA:27:C8:13:55:B8:37:91
            X509v3 Authority Key Identifier: 
                92:27:E7:68:32:50:B7:59:D4:F2:28:65:96:1E:05:25:12:14:8E:07
    Signature Algorithm: ecdsa-with-SHA256
    Signature Value:
        30:65:02:30:0c:cc:0a:13:f4:6c:6d:60:a7:e7:93:9c:6f:e4:
        75:8b:15:ae:83:18:bc:a0:be:1d:d3:80:0a:43:cd:9e:ca:65:
        02:b9:19:32:ed:61:a3:1d:c8:4d:af:f4:10:6d:0e:51:02:31:
        00:8d:34:5d:10:4d:fb:53:83:f2:45:9d:02:dd:34:8a:3c:85:
        90:1c:65:6b:f9:26:1e:3c:a7:68:77:80:19:34:1a:d3:6d:85:
        0f:ad:77:11:46:37:e3:c0:d6:76:aa:34:1a
-----BEGIN CERTIFICATE-----
MIICeDCCAf6gAwIBAgIBATAKBggqhkjOPQQDAjB2MQ0wCwYDVQQDDARJU0VOMQ8w
DQYDVQQIDAZGcmFuY2UxCzAJBgNVBAYTAkZSMSkwJwYJKoZIhvcNAQkBFhpodWdv
Lm1pbGxldEBpc2VuLnluY3JlYS5mcjENMAsGA1UECgwESVNFTjENMAsGA1UECwwE
SVNFTjAeFw0yMzA0MjAxMzUyMjhaFw0yNDA0MTkxMzUyMjhaMHYxDTALBgNVBAMM
BElTRU4xDzANBgNVBAgMBkZyYW5jZTELMAkGA1UEBhMCRlIxKTAnBgkqhkiG9w0B
CQEWGmh1Z28ubWlsbGV0QGlzZW4ueW5jcmVhLmZyMQ0wCwYDVQQKDARJU0VOMQ0w
CwYDVQQLDARJU0VOMHYwEAYHKoZIzj0CAQYFK4EEACIDYgAEv0kRv7LxJtwxfzCi
hsj9Et+uPUEViyTu2W8NkuP8UPi+22+Z0YHZcPPc+3qbmL5tKLJFzoQkR912d6PJ
qcqYH3HcnrAdFxQilsHX9idSI5xxp+KZ1ymM9di9fmy899Dio2AwXjAPBgNVHRMB
Af8EBTADAQH/MAsGA1UdDwQEAwIFoDAdBgNVHQ4EFgQUlrvOr+XyrZhQsv7b+ifI
E1W4N5EwHwYDVR0jBBgwFoAUkifnaDJQt1nU8ihllh4FJRIUjgcwCgYIKoZIzj0E
AwIDaAAwZQIwDMwKE/RsbWCn55Ocb+R1ixWugxi8oL4d04AKQ82eymUCuRky7WGj
HchNr/QQbQ5RAjEAjTRdEE37U4PyRZ0C3TSKPIWQHGVr+SYePKdod4AZNBrTbYUP
rXcRRjfjwNZ2qjQa
-----END CERTIFICATE-----
