Certificate:
    Data:
        Version: 3 (0x2)
        Serial Number: 1 (0x1)
        Signature Algorithm: ecdsa-with-SHA256
        Issuer: CN=ISEN ACR, ST=France, C=FR/emailAddress=hugo.millet@isen.yncrea.fr, O=ISEN, OU=ISEN
        Validity
            Not Before: Apr 23 15:46:04 2023 GMT
            Not After : Apr 22 15:46:04 2024 GMT
        Subject: CN=ISEN ACI, ST=France, C=FR/emailAddress=hugo.millet@isen.yncrea.fr, O=ISEN, OU=ISEN
        Subject Public Key Info:
            Public Key Algorithm: id-ecPublicKey
                Public-Key: (384 bit)
                pub:
                    04:06:a1:a5:af:56:c4:04:c0:3a:ff:0a:d8:59:57:
                    b6:c1:c0:d1:bb:60:bd:2b:9d:37:a5:62:31:5d:00:
                    7b:a4:25:1d:16:aa:f2:29:86:ce:78:76:6a:e1:88:
                    c0:8b:6c:13:5f:99:55:ef:99:57:f2:54:fc:87:ab:
                    e3:b0:3e:dd:17:d6:17:21:55:5f:ec:2a:ca:0e:ae:
                    73:a7:89:1c:42:35:5f:e2:2b:a2:24:0b:e4:81:66:
                    c4:ce:d6:ff:cb:6f:34
                ASN1 OID: secp384r1
                NIST CURVE: P-384
        X509v3 extensions:
            X509v3 Basic Constraints: critical
                CA:TRUE, pathlen:0
            X509v3 Key Usage: 
                Digital Signature, Key Encipherment, Certificate Sign
            X509v3 Subject Key Identifier: 
                58:0F:FD:9A:71:B9:C6:56:9D:39:A5:0C:D1:62:2E:5D:40:D2:3D:25
            X509v3 Authority Key Identifier: 
                01:27:46:D3:EB:39:4B:75:C7:FF:66:A8:B4:50:F1:EF:59:D2:EF:2E
    Signature Algorithm: ecdsa-with-SHA256
    Signature Value:
        30:65:02:31:00:ae:74:28:57:c9:55:19:88:de:3b:ea:bc:27:
        60:51:31:4d:2e:87:e7:8e:49:0d:2f:93:f8:1b:ba:3f:0f:e9:
        18:cf:32:20:ff:be:68:11:bd:68:d9:a4:a0:c6:57:c7:3e:02:
        30:2c:04:81:79:73:b3:5c:2b:42:ef:e3:dc:a4:4c:82:db:f7:
        62:97:1f:8a:cb:c1:aa:81:f7:71:f5:1f:03:be:25:df:a6:d3:
        59:70:39:a9:4a:03:9c:c7:9b:47:05:47:6e
-----BEGIN CERTIFICATE-----
MIICgzCCAgmgAwIBAgIBATAKBggqhkjOPQQDAjB6MREwDwYDVQQDDAhJU0VOIEFD
UjEPMA0GA1UECAwGRnJhbmNlMQswCQYDVQQGEwJGUjEpMCcGCSqGSIb3DQEJARYa
aHVnby5taWxsZXRAaXNlbi55bmNyZWEuZnIxDTALBgNVBAoMBElTRU4xDTALBgNV
BAsMBElTRU4wHhcNMjMwNDIzMTU0NjA0WhcNMjQwNDIyMTU0NjA0WjB6MREwDwYD
VQQDDAhJU0VOIEFDSTEPMA0GA1UECAwGRnJhbmNlMQswCQYDVQQGEwJGUjEpMCcG
CSqGSIb3DQEJARYaaHVnby5taWxsZXRAaXNlbi55bmNyZWEuZnIxDTALBgNVBAoM
BElTRU4xDTALBgNVBAsMBElTRU4wdjAQBgcqhkjOPQIBBgUrgQQAIgNiAAQGoaWv
VsQEwDr/CthZV7bBwNG7YL0rnTelYjFdAHukJR0WqvIphs54dmrhiMCLbBNfmVXv
mVfyVPyHq+OwPt0X1hchVV/sKsoOrnOniRxCNV/iK6IkC+SBZsTO1v/LbzSjYzBh
MBIGA1UdEwEB/wQIMAYBAf8CAQAwCwYDVR0PBAQDAgKkMB0GA1UdDgQWBBRYD/2a
cbnGVp05pQzRYi5dQNI9JTAfBgNVHSMEGDAWgBQBJ0bT6zlLdcf/Zqi0UPHvWdLv
LjAKBggqhkjOPQQDAgNoADBlAjEArnQoV8lVGYjeO+q8J2BRMU0uh+eOSQ0vk/gb
uj8P6RjPMiD/vmgRvWjZpKDGV8c+AjAsBIF5c7NcK0Lv49ykTILb92KXH4rLwaqB
93H1HwO+Jd+m01lwOalKA5zHm0cFR24=
-----END CERTIFICATE-----
