Certificate:
    Data:
        Version: 3 (0x2)
        Serial Number: 1 (0x1)
        Signature Algorithm: ecdsa-with-SHA256
        Issuer: CN=ISEN ACR, ST=France, C=FR/emailAddress=hugo.millet@isen.yncrea.fr, O=ISEN, OU=ISEN
        Validity
            Not Before: Apr 30 14:26:07 2023 GMT
            Not After : Apr 29 14:26:07 2024 GMT
        Subject: CN=ISEN ACI, ST=France, C=FR/emailAddress=hugo.millet@isen.yncrea.fr, O=ISEN, OU=ISEN
        Subject Public Key Info:
            Public Key Algorithm: id-ecPublicKey
                Public-Key: (384 bit)
                pub:
                    04:9a:67:70:cd:d1:9c:fd:f1:a9:3d:62:b8:0b:5f:
                    e5:5b:2d:c2:25:df:70:69:71:b0:66:89:16:50:70:
                    1b:47:f7:59:45:36:08:50:9e:c6:54:5d:64:16:b7:
                    f4:08:10:42:45:ea:82:10:3c:f4:5d:fc:bf:0a:b6:
                    2f:7c:af:28:ab:a9:ad:ed:4a:bc:db:87:d1:e9:c4:
                    2d:b1:9d:d5:41:92:0c:ff:ad:64:f1:fe:15:3a:2a:
                    2e:0e:14:b8:49:f9:3c
                ASN1 OID: secp384r1
                NIST CURVE: P-384
        X509v3 extensions:
            X509v3 Basic Constraints: critical
                CA:TRUE, pathlen:0
            Authority Information Access: 
                OCSP - URI:http://127.0.0.1:8888
            X509v3 Key Usage: 
                Digital Signature, Key Encipherment, Certificate Sign
            X509v3 Subject Key Identifier: 
                A6:DD:9E:7D:56:00:50:DD:E2:2C:B7:2C:34:0B:E3:BE:E9:BB:EE:4C
            X509v3 Authority Key Identifier: 
                AF:55:97:3A:76:54:58:BB:E8:67:DC:AC:96:DF:B0:A5:BE:EF:B9:89
    Signature Algorithm: ecdsa-with-SHA256
    Signature Value:
        30:64:02:30:66:50:05:5d:02:24:12:7f:9b:bc:36:88:df:9c:
        21:55:b3:db:d7:02:6f:4a:fd:c4:2e:d6:2f:95:27:29:8e:03:
        37:6b:7f:a2:25:45:10:16:57:0a:7c:d6:79:70:bf:90:02:30:
        36:9e:41:42:1e:c3:ad:68:54:0c:02:10:e6:fa:f1:f9:20:b7:
        fb:99:03:c5:69:8e:1c:ef:8c:b5:82:36:41:4b:5f:5c:42:ce:
        0d:05:4f:ee:1c:ab:23:c1:1a:39:31:5b
-----BEGIN CERTIFICATE-----
MIICtzCCAj6gAwIBAgIBATAKBggqhkjOPQQDAjB6MREwDwYDVQQDDAhJU0VOIEFD
UjEPMA0GA1UECAwGRnJhbmNlMQswCQYDVQQGEwJGUjEpMCcGCSqGSIb3DQEJARYa
aHVnby5taWxsZXRAaXNlbi55bmNyZWEuZnIxDTALBgNVBAoMBElTRU4xDTALBgNV
BAsMBElTRU4wHhcNMjMwNDMwMTQyNjA3WhcNMjQwNDI5MTQyNjA3WjB6MREwDwYD
VQQDDAhJU0VOIEFDSTEPMA0GA1UECAwGRnJhbmNlMQswCQYDVQQGEwJGUjEpMCcG
CSqGSIb3DQEJARYaaHVnby5taWxsZXRAaXNlbi55bmNyZWEuZnIxDTALBgNVBAoM
BElTRU4xDTALBgNVBAsMBElTRU4wdjAQBgcqhkjOPQIBBgUrgQQAIgNiAASaZ3DN
0Zz98ak9YrgLX+VbLcIl33BpcbBmiRZQcBtH91lFNghQnsZUXWQWt/QIEEJF6oIQ
PPRd/L8Kti98ryirqa3tSrzbh9HpxC2xndVBkgz/rWTx/hU6Ki4OFLhJ+TyjgZcw
gZQwEgYDVR0TAQH/BAgwBgEB/wIBADAxBggrBgEFBQcBAQQlMCMwIQYIKwYBBQUH
MAGGFWh0dHA6Ly8xMjcuMC4wLjE6ODg4ODALBgNVHQ8EBAMCAqQwHQYDVR0OBBYE
FKbdnn1WAFDd4iy3LDQL477pu+5MMB8GA1UdIwQYMBaAFK9Vlzp2VFi76GfcrJbf
sKW+77mJMAoGCCqGSM49BAMCA2cAMGQCMGZQBV0CJBJ/m7w2iN+cIVWz29cCb0r9
xC7WL5UnKY4DN2t/oiVFEBZXCnzWeXC/kAIwNp5BQh7DrWhUDAIQ5vrx+SC3+5kD
xWmOHO+MtYI2QUtfXELODQVP7hyrI8EaOTFb
-----END CERTIFICATE-----
