Certificate:
    Data:
        Version: 3 (0x2)
        Serial Number: 2 (0x2)
        Signature Algorithm: ecdsa-with-SHA256
        Issuer: CN=ISEN ACI, ST=France, C=FR/emailAddress=hugo.millet@isen.yncrea.fr, O=ISEN, OU=ISEN
        Validity
            Not Before: Apr 20 13:59:57 2023 GMT
            Not After : Jul 19 13:59:57 2023 GMT
        Subject: CN=hugo/emailAddress=hugo.millet@isen.yncrea.fr
        Subject Public Key Info:
            Public Key Algorithm: id-ecPublicKey
                Public-Key: (384 bit)
                pub:
                    04:9f:7a:1d:60:50:c7:f0:76:73:49:47:45:f2:7b:
                    41:08:0c:79:aa:c2:42:9e:a3:ad:3b:2a:a2:fd:94:
                    05:c2:8b:fd:14:08:8e:28:86:1c:58:9b:22:22:46:
                    0b:62:2e:f3:55:46:f1:75:9e:f1:e3:87:03:ea:16:
                    17:de:3e:45:e0:68:4e:ed:36:63:f4:32:b8:9b:d5:
                    e8:76:cd:bf:80:eb:f5:13:8e:fe:62:64:bb:b8:32:
                    3d:aa:1c:40:3e:16:5a
                ASN1 OID: secp384r1
                NIST CURVE: P-384
        X509v3 extensions:
            X509v3 Basic Constraints: critical
                CA:FALSE
            X509v3 Subject Key Identifier: 
                1C:19:EE:6E:25:6D:E3:16:43:AF:DC:22:00:F9:F9:B0:11:49:9F:66
            X509v3 Authority Key Identifier: 
                37:C1:B0:9A:11:F5:D0:5B:43:B3:15:DF:88:3D:9B:A4:13:66:6C:1A
    Signature Algorithm: ecdsa-with-SHA256
    Signature Value:
        30:65:02:31:00:85:ac:be:00:f2:6f:5c:f7:e5:ee:0a:ba:3b:
        20:ca:0d:e2:ec:fa:d5:a0:24:5d:bc:19:52:d1:f4:0b:33:fc:
        18:23:99:d8:f0:ad:f9:4e:09:3c:44:13:08:6c:ff:9c:ec:02:
        30:28:84:2e:70:6e:c5:d2:d7:1d:3e:eb:9b:85:e2:d6:1a:6b:
        0e:f9:60:52:48:88:ab:94:e9:0a:4b:8a:e6:98:41:6a:4a:2d:
        24:89:c1:3a:a6:61:2d:e6:a7:de:7c:82:6f
-----BEGIN CERTIFICATE-----
MIICMDCCAbagAwIBAgIBAjAKBggqhkjOPQQDAjB6MREwDwYDVQQDDAhJU0VOIEFD
STEPMA0GA1UECAwGRnJhbmNlMQswCQYDVQQGEwJGUjEpMCcGCSqGSIb3DQEJARYa
aHVnby5taWxsZXRAaXNlbi55bmNyZWEuZnIxDTALBgNVBAoMBElTRU4xDTALBgNV
BAsMBElTRU4wHhcNMjMwNDIwMTM1OTU3WhcNMjMwNzE5MTM1OTU3WjA6MQ0wCwYD
VQQDDARodWdvMSkwJwYJKoZIhvcNAQkBFhpodWdvLm1pbGxldEBpc2VuLnluY3Jl
YS5mcjB2MBAGByqGSM49AgEGBSuBBAAiA2IABJ96HWBQx/B2c0lHRfJ7QQgMearC
Qp6jrTsqov2UBcKL/RQIjiiGHFibIiJGC2Iu81VG8XWe8eOHA+oWF94+ReBoTu02
Y/QyuJvV6HbNv4Dr9ROO/mJku7gyPaocQD4WWqNQME4wDAYDVR0TAQH/BAIwADAd
BgNVHQ4EFgQUHBnubiVt4xZDr9wiAPn5sBFJn2YwHwYDVR0jBBgwFoAUN8GwmhH1
0FtDsxXfiD2bpBNmbBowCgYIKoZIzj0EAwIDaAAwZQIxAIWsvgDyb1z35e4Kujsg
yg3i7PrVoCRdvBlS0fQLM/wYI5nY8K35Tgk8RBMIbP+c7AIwKIQucG7F0tcdPuub
heLWGmsO+WBSSIirlOkKS4rmmEFqSi0kicE6pmEt5qfefIJv
-----END CERTIFICATE-----
