Certificate:
    Data:
        Version: 3 (0x2)
        Serial Number: 2 (0x2)
        Signature Algorithm: ecdsa-with-SHA256
        Issuer: CN=ISEN ACI, ST=France, C=FR/emailAddress=hugo.millet@isen.yncrea.fr, O=ISEN, OU=ISEN
        Validity
            Not Before: Apr 20 15:13:36 2023 GMT
            Not After : Jul 19 15:13:36 2023 GMT
        Subject: CN=hugo/emailAddress=hugo.millet@isen.yncrea.fr
        Subject Public Key Info:
            Public Key Algorithm: id-ecPublicKey
                Public-Key: (384 bit)
                pub:
                    04:9f:7a:1d:60:50:c7:f0:76:73:49:47:45:f2:7b:
                    41:08:0c:79:aa:c2:42:9e:a3:ad:3b:2a:a2:fd:94:
                    05:c2:8b:fd:14:08:8e:28:86:1c:58:9b:22:22:46:
                    0b:62:2e:f3:55:46:f1:75:9e:f1:e3:87:03:ea:16:
                    17:de:3e:45:e0:68:4e:ed:36:63:f4:32:b8:9b:d5:
                    e8:76:cd:bf:80:eb:f5:13:8e:fe:62:64:bb:b8:32:
                    3d:aa:1c:40:3e:16:5a
                ASN1 OID: secp384r1
                NIST CURVE: P-384
        X509v3 extensions:
            X509v3 Basic Constraints: critical
                CA:FALSE
            X509v3 Subject Key Identifier: 
                1C:19:EE:6E:25:6D:E3:16:43:AF:DC:22:00:F9:F9:B0:11:49:9F:66
            X509v3 Authority Key Identifier: 
                D1:8E:19:F0:E7:04:90:42:A0:57:27:48:D2:49:3D:61:FC:97:F4:05
    Signature Algorithm: ecdsa-with-SHA256
    Signature Value:
        30:65:02:30:7c:fb:aa:ad:86:63:4a:d1:73:25:02:ed:a0:72:
        b0:19:4e:a3:56:3b:88:4c:a8:3f:7d:f8:12:04:8c:91:0a:81:
        25:b4:40:67:28:5f:c1:7b:b9:3c:c9:34:8f:6a:f5:d2:02:31:
        00:f8:d1:06:e7:6b:07:82:a5:4f:4e:41:d8:9c:54:19:26:f4:
        31:6d:39:fa:6b:13:e6:3d:09:41:3d:a6:8d:c1:e0:53:97:c2:
        46:2d:0f:be:09:28:ea:ce:3a:35:58:cb:2e
-----BEGIN CERTIFICATE-----
MIICMDCCAbagAwIBAgIBAjAKBggqhkjOPQQDAjB6MREwDwYDVQQDDAhJU0VOIEFD
STEPMA0GA1UECAwGRnJhbmNlMQswCQYDVQQGEwJGUjEpMCcGCSqGSIb3DQEJARYa
aHVnby5taWxsZXRAaXNlbi55bmNyZWEuZnIxDTALBgNVBAoMBElTRU4xDTALBgNV
BAsMBElTRU4wHhcNMjMwNDIwMTUxMzM2WhcNMjMwNzE5MTUxMzM2WjA6MQ0wCwYD
VQQDDARodWdvMSkwJwYJKoZIhvcNAQkBFhpodWdvLm1pbGxldEBpc2VuLnluY3Jl
YS5mcjB2MBAGByqGSM49AgEGBSuBBAAiA2IABJ96HWBQx/B2c0lHRfJ7QQgMearC
Qp6jrTsqov2UBcKL/RQIjiiGHFibIiJGC2Iu81VG8XWe8eOHA+oWF94+ReBoTu02
Y/QyuJvV6HbNv4Dr9ROO/mJku7gyPaocQD4WWqNQME4wDAYDVR0TAQH/BAIwADAd
BgNVHQ4EFgQUHBnubiVt4xZDr9wiAPn5sBFJn2YwHwYDVR0jBBgwFoAU0Y4Z8OcE
kEKgVydI0kk9YfyX9AUwCgYIKoZIzj0EAwIDaAAwZQIwfPuqrYZjStFzJQLtoHKw
GU6jVjuITKg/ffgSBIyRCoEltEBnKF/Be7k8yTSPavXSAjEA+NEG52sHgqVPTkHY
nFQZJvQxbTn6axPmPQlBPaaNweBTl8JGLQ++CSjqzjo1WMsu
-----END CERTIFICATE-----
