Certificate:
    Data:
        Version: 3 (0x2)
        Serial Number: 2 (0x2)
        Signature Algorithm: ecdsa-with-SHA256
        Issuer: CN=ISEN ACI, ST=France, C=FR/emailAddress=hugo.millet@isen.yncrea.fr, O=ISEN, OU=ISEN
        Validity
            Not Before: Apr 23 16:12:24 2023 GMT
            Not After : Jul 22 16:12:24 2023 GMT
        Subject: CN=hugo/emailAddress=hugo.millet@isen.yncrea.fr
        Subject Public Key Info:
            Public Key Algorithm: id-ecPublicKey
                Public-Key: (384 bit)
                pub:
                    04:9f:7a:1d:60:50:c7:f0:76:73:49:47:45:f2:7b:
                    41:08:0c:79:aa:c2:42:9e:a3:ad:3b:2a:a2:fd:94:
                    05:c2:8b:fd:14:08:8e:28:86:1c:58:9b:22:22:46:
                    0b:62:2e:f3:55:46:f1:75:9e:f1:e3:87:03:ea:16:
                    17:de:3e:45:e0:68:4e:ed:36:63:f4:32:b8:9b:d5:
                    e8:76:cd:bf:80:eb:f5:13:8e:fe:62:64:bb:b8:32:
                    3d:aa:1c:40:3e:16:5a
                ASN1 OID: secp384r1
                NIST CURVE: P-384
        X509v3 extensions:
            X509v3 Basic Constraints: critical
                CA:FALSE
            X509v3 Subject Key Identifier: 
                1C:19:EE:6E:25:6D:E3:16:43:AF:DC:22:00:F9:F9:B0:11:49:9F:66
            X509v3 Authority Key Identifier: 
                04:38:C9:82:E9:1B:81:03:56:0E:16:FE:2B:0B:1F:03:E2:8E:B6:78
    Signature Algorithm: ecdsa-with-SHA256
    Signature Value:
        30:66:02:31:00:86:bd:77:04:3a:0f:1d:65:bd:91:38:ee:b6:
        f3:9b:5b:f5:a4:81:ea:02:61:81:1f:47:97:6d:f0:2d:5e:71:
        0b:5f:0d:25:90:39:43:55:12:eb:0a:69:0f:8f:43:f4:42:02:
        31:00:91:34:aa:89:e9:93:b3:df:ac:78:48:2c:e0:69:da:06:
        33:a6:a3:e9:52:e2:64:a0:1c:28:c4:90:69:2d:57:46:7f:28:
        eb:62:61:9b:a4:d0:e9:24:82:dc:10:a8:ea:42
-----BEGIN CERTIFICATE-----
MIICMTCCAbagAwIBAgIBAjAKBggqhkjOPQQDAjB6MREwDwYDVQQDDAhJU0VOIEFD
STEPMA0GA1UECAwGRnJhbmNlMQswCQYDVQQGEwJGUjEpMCcGCSqGSIb3DQEJARYa
aHVnby5taWxsZXRAaXNlbi55bmNyZWEuZnIxDTALBgNVBAoMBElTRU4xDTALBgNV
BAsMBElTRU4wHhcNMjMwNDIzMTYxMjI0WhcNMjMwNzIyMTYxMjI0WjA6MQ0wCwYD
VQQDDARodWdvMSkwJwYJKoZIhvcNAQkBFhpodWdvLm1pbGxldEBpc2VuLnluY3Jl
YS5mcjB2MBAGByqGSM49AgEGBSuBBAAiA2IABJ96HWBQx/B2c0lHRfJ7QQgMearC
Qp6jrTsqov2UBcKL/RQIjiiGHFibIiJGC2Iu81VG8XWe8eOHA+oWF94+ReBoTu02
Y/QyuJvV6HbNv4Dr9ROO/mJku7gyPaocQD4WWqNQME4wDAYDVR0TAQH/BAIwADAd
BgNVHQ4EFgQUHBnubiVt4xZDr9wiAPn5sBFJn2YwHwYDVR0jBBgwFoAUBDjJgukb
gQNWDhb+KwsfA+KOtngwCgYIKoZIzj0EAwIDaQAwZgIxAIa9dwQ6Dx1lvZE47rbz
m1v1pIHqAmGBH0eXbfAtXnELXw0lkDlDVRLrCmkPj0P0QgIxAJE0qonpk7PfrHhI
LOBp2gYzpqPpUuJkoBwoxJBpLVdGfyjrYmGbpNDpJILcEKjqQg==
-----END CERTIFICATE-----
