Certificate:
    Data:
        Version: 3 (0x2)
        Serial Number: 2 (0x2)
        Signature Algorithm: ecdsa-with-SHA256
        Issuer: CN=ISEN ACI, ST=France, C=FR/emailAddress=hugo.millet@isen.yncrea.fr, O=ISEN, OU=ISEN
        Validity
            Not Before: Apr 20 14:46:25 2023 GMT
            Not After : Jul 19 14:46:25 2023 GMT
        Subject: CN=hugo/emailAddress=hugo.millet@isen.yncrea.fr
        Subject Public Key Info:
            Public Key Algorithm: id-ecPublicKey
                Public-Key: (384 bit)
                pub:
                    04:9f:7a:1d:60:50:c7:f0:76:73:49:47:45:f2:7b:
                    41:08:0c:79:aa:c2:42:9e:a3:ad:3b:2a:a2:fd:94:
                    05:c2:8b:fd:14:08:8e:28:86:1c:58:9b:22:22:46:
                    0b:62:2e:f3:55:46:f1:75:9e:f1:e3:87:03:ea:16:
                    17:de:3e:45:e0:68:4e:ed:36:63:f4:32:b8:9b:d5:
                    e8:76:cd:bf:80:eb:f5:13:8e:fe:62:64:bb:b8:32:
                    3d:aa:1c:40:3e:16:5a
                ASN1 OID: secp384r1
                NIST CURVE: P-384
        X509v3 extensions:
            X509v3 Basic Constraints: critical
                CA:FALSE
            X509v3 Subject Key Identifier: 
                1C:19:EE:6E:25:6D:E3:16:43:AF:DC:22:00:F9:F9:B0:11:49:9F:66
            X509v3 Authority Key Identifier: 
                A7:E4:53:04:6C:30:EB:81:3A:49:9F:BC:C8:23:5F:0D:2F:59:B9:69
    Signature Algorithm: ecdsa-with-SHA256
    Signature Value:
        30:65:02:30:0e:3e:0f:3c:cd:48:a4:4f:aa:da:3f:17:cd:4f:
        6c:6b:64:06:92:d3:bf:04:33:f4:e8:f9:da:cb:4c:85:01:42:
        de:93:4d:ce:78:46:aa:10:c0:98:4c:82:90:76:d0:4f:02:31:
        00:d7:7f:08:12:49:af:e0:5e:9d:a3:78:c9:a7:cc:dd:8b:87:
        bc:06:d1:28:9d:aa:70:e4:5b:b9:71:4d:5b:28:cb:bb:b2:cb:
        1f:c5:b4:ff:7e:bd:91:e2:54:b0:5c:78:f4
-----BEGIN CERTIFICATE-----
MIICMDCCAbagAwIBAgIBAjAKBggqhkjOPQQDAjB6MREwDwYDVQQDDAhJU0VOIEFD
STEPMA0GA1UECAwGRnJhbmNlMQswCQYDVQQGEwJGUjEpMCcGCSqGSIb3DQEJARYa
aHVnby5taWxsZXRAaXNlbi55bmNyZWEuZnIxDTALBgNVBAoMBElTRU4xDTALBgNV
BAsMBElTRU4wHhcNMjMwNDIwMTQ0NjI1WhcNMjMwNzE5MTQ0NjI1WjA6MQ0wCwYD
VQQDDARodWdvMSkwJwYJKoZIhvcNAQkBFhpodWdvLm1pbGxldEBpc2VuLnluY3Jl
YS5mcjB2MBAGByqGSM49AgEGBSuBBAAiA2IABJ96HWBQx/B2c0lHRfJ7QQgMearC
Qp6jrTsqov2UBcKL/RQIjiiGHFibIiJGC2Iu81VG8XWe8eOHA+oWF94+ReBoTu02
Y/QyuJvV6HbNv4Dr9ROO/mJku7gyPaocQD4WWqNQME4wDAYDVR0TAQH/BAIwADAd
BgNVHQ4EFgQUHBnubiVt4xZDr9wiAPn5sBFJn2YwHwYDVR0jBBgwFoAUp+RTBGww
64E6SZ+8yCNfDS9ZuWkwCgYIKoZIzj0EAwIDaAAwZQIwDj4PPM1IpE+q2j8XzU9s
a2QGktO/BDP06Pnay0yFAULek03OeEaqEMCYTIKQdtBPAjEA138IEkmv4F6do3jJ
p8zdi4e8BtEonapw5Fu5cU1bKMu7sssfxbT/fr2R4lSwXHj0
-----END CERTIFICATE-----
