OCSP Request Data:
    Version: 1 (0x0)
    Requestor List:
        Certificate ID:
          Hash Algorithm: sha1
          Issuer Name Hash: 63157671A98AC0B8FD82ABB275A40C340E3C0ABF
          Issuer Key Hash: 487B7D22D615530DED7A14462D10B59B73B3FB3F
          Serial Number: 03
    Request Extensions:
        OCSP Nonce: 
            0410FF4411C799ECF4531D4F258367A72C27
OCSP Response Data:
    OCSP Response Status: successful (0x0)
    Response Type: Basic OCSP Response
    Version: 1 (0x0)
    Responder Id: CN = ISEN OSCP, ST = France, C = FR, emailAddress = hugo.millet@isen.yncrea.fr, O = ISEN, OU = ISEN
    Produced At: Apr 30 16:05:19 2023 GMT
    Responses:
    Certificate ID:
      Hash Algorithm: sha1
      Issuer Name Hash: 63157671A98AC0B8FD82ABB275A40C340E3C0ABF
      Issuer Key Hash: 487B7D22D615530DED7A14462D10B59B73B3FB3F
      Serial Number: 03
    Cert Status: unknown
    This Update: Apr 30 16:05:19 2023 GMT

    Response Extensions:
        OCSP Nonce: 
            0410FF4411C799ECF4531D4F258367A72C27
    Signature Algorithm: ecdsa-with-SHA256
    Signature Value:
        30:45:02:21:00:e7:6d:96:c8:ba:05:5a:32:69:a9:b2:f4:c5:
        5f:fe:d9:a6:cb:a2:e7:75:0e:92:39:9b:f7:25:86:05:84:ed:
        a9:02:20:08:d2:0e:9b:fd:67:58:2e:29:b6:8f:b8:5f:01:2b:
        90:9d:ee:0c:bb:51:df:b1:d9:79:25:9a:55:96:a9:06:52
Certificate:
    Data:
        Version: 3 (0x2)
        Serial Number: 2 (0x2)
        Signature Algorithm: ecdsa-with-SHA256
        Issuer: CN=ISEN ACI, ST=France, C=FR/emailAddress=hugo.millet@isen.yncrea.fr, O=ISEN, OU=ISEN
        Validity
            Not Before: Apr 30 16:03:07 2023 GMT
            Not After : Apr 28 16:03:07 2028 GMT
        Subject: CN=ISEN OSCP, ST=France, C=FR/emailAddress=hugo.millet@isen.yncrea.fr, O=ISEN, OU=ISEN
        Subject Public Key Info:
            Public Key Algorithm: id-ecPublicKey
                Public-Key: (256 bit)
                pub:
                    04:9c:e4:d9:cf:ce:2c:f8:fd:94:ba:69:19:6c:03:
                    df:d5:4f:59:98:65:94:bb:1e:20:8c:3d:cc:69:a6:
                    0a:75:58:fd:28:c6:17:df:b0:2a:36:28:8f:c9:0f:
                    ed:d0:a2:82:8b:a9:c1:05:70:e1:b5:c1:ac:87:0c:
                    26:06:26:01:42
                ASN1 OID: prime256v1
                NIST CURVE: P-256
        X509v3 extensions:
            X509v3 Basic Constraints: critical
                CA:FALSE
            X509v3 Key Usage: 
                Digital Signature, Non Repudiation, Key Encipherment
            X509v3 Extended Key Usage: 
                OCSP Signing
            X509v3 Subject Key Identifier: 
                16:BC:05:BD:97:52:3D:1E:1B:09:12:CE:04:EA:12:45:9A:1E:46:EB
            X509v3 Authority Key Identifier: 
                48:7B:7D:22:D6:15:53:0D:ED:7A:14:46:2D:10:B5:9B:73:B3:FB:3F
    Signature Algorithm: ecdsa-with-SHA256
    Signature Value:
        30:45:02:20:7b:1a:03:b4:d8:66:aa:46:67:f0:90:f7:95:6b:
        5b:19:ee:3e:9c:f5:94:9d:99:5b:d9:51:68:69:ad:d9:5a:69:
        02:21:00:bf:7d:84:47:ef:81:4a:cf:20:8a:1c:6f:df:7d:40:
        19:f7:3f:85:66:39:2d:44:5d:6c:2d:6b:6f:cb:51:2e:4d
-----BEGIN CERTIFICATE-----
MIICVjCCAfygAwIBAgIBAjAKBggqhkjOPQQDAjB6MREwDwYDVQQDDAhJU0VOIEFD
STEPMA0GA1UECAwGRnJhbmNlMQswCQYDVQQGEwJGUjEpMCcGCSqGSIb3DQEJARYa
aHVnby5taWxsZXRAaXNlbi55bmNyZWEuZnIxDTALBgNVBAoMBElTRU4xDTALBgNV
BAsMBElTRU4wHhcNMjMwNDMwMTYwMzA3WhcNMjgwNDI4MTYwMzA3WjB7MRIwEAYD
VQQDDAlJU0VOIE9TQ1AxDzANBgNVBAgMBkZyYW5jZTELMAkGA1UEBhMCRlIxKTAn
BgkqhkiG9w0BCQEWGmh1Z28ubWlsbGV0QGlzZW4ueW5jcmVhLmZyMQ0wCwYDVQQK
DARJU0VOMQ0wCwYDVQQLDARJU0VOMFkwEwYHKoZIzj0CAQYIKoZIzj0DAQcDQgAE
nOTZz84s+P2UumkZbAPf1U9ZmGWUux4gjD3MaaYKdVj9KMYX37AqNiiPyQ/t0KKC
i6nBBXDhtcGshwwmBiYBQqNyMHAwDAYDVR0TAQH/BAIwADALBgNVHQ8EBAMCBeAw
EwYDVR0lBAwwCgYIKwYBBQUHAwkwHQYDVR0OBBYEFBa8Bb2XUj0eGwkSzgTqEkWa
HkbrMB8GA1UdIwQYMBaAFEh7fSLWFVMN7XoURi0QtZtzs/s/MAoGCCqGSM49BAMC
A0gAMEUCIHsaA7TYZqpGZ/CQ95VrWxnuPpz1lJ2ZW9lRaGmt2VppAiEAv32ER++B
Ss8gihxv331AGfc/hWY5LURdbC1rb8tRLk0=
-----END CERTIFICATE-----
OCSP Request Data:
    Version: 1 (0x0)
    Requestor List:
        Certificate ID:
          Hash Algorithm: sha1
          Issuer Name Hash: 63157671A98AC0B8FD82ABB275A40C340E3C0ABF
          Issuer Key Hash: 487B7D22D615530DED7A14462D10B59B73B3FB3F
          Serial Number: 03
    Request Extensions:
        OCSP Nonce: 
            0410515F87C56A5949E0A88D03CA70023699
OCSP Response Data:
    OCSP Response Status: successful (0x0)
    Response Type: Basic OCSP Response
    Version: 1 (0x0)
    Responder Id: CN = ISEN OSCP, ST = France, C = FR, emailAddress = hugo.millet@isen.yncrea.fr, O = ISEN, OU = ISEN
    Produced At: Apr 30 16:05:22 2023 GMT
    Responses:
    Certificate ID:
      Hash Algorithm: sha1
      Issuer Name Hash: 63157671A98AC0B8FD82ABB275A40C340E3C0ABF
      Issuer Key Hash: 487B7D22D615530DED7A14462D10B59B73B3FB3F
      Serial Number: 03
    Cert Status: good
    This Update: Apr 30 16:05:22 2023 GMT

    Response Extensions:
        OCSP Nonce: 
            0410515F87C56A5949E0A88D03CA70023699
    Signature Algorithm: ecdsa-with-SHA256
    Signature Value:
        30:44:02:20:2f:ec:e5:26:bd:01:d9:2c:0c:e4:f4:4a:be:30:
        78:d4:36:80:71:bf:9a:3c:af:01:4d:79:76:92:bd:b6:d0:86:
        02:20:58:e3:8a:fc:15:1c:83:c4:d3:92:c6:29:7c:67:1d:c6:
        d9:ad:c7:00:8e:41:48:99:0a:f1:0e:23:e4:13:d0:cc
Certificate:
    Data:
        Version: 3 (0x2)
        Serial Number: 2 (0x2)
        Signature Algorithm: ecdsa-with-SHA256
        Issuer: CN=ISEN ACI, ST=France, C=FR/emailAddress=hugo.millet@isen.yncrea.fr, O=ISEN, OU=ISEN
        Validity
            Not Before: Apr 30 16:03:07 2023 GMT
            Not After : Apr 28 16:03:07 2028 GMT
        Subject: CN=ISEN OSCP, ST=France, C=FR/emailAddress=hugo.millet@isen.yncrea.fr, O=ISEN, OU=ISEN
        Subject Public Key Info:
            Public Key Algorithm: id-ecPublicKey
                Public-Key: (256 bit)
                pub:
                    04:9c:e4:d9:cf:ce:2c:f8:fd:94:ba:69:19:6c:03:
                    df:d5:4f:59:98:65:94:bb:1e:20:8c:3d:cc:69:a6:
                    0a:75:58:fd:28:c6:17:df:b0:2a:36:28:8f:c9:0f:
                    ed:d0:a2:82:8b:a9:c1:05:70:e1:b5:c1:ac:87:0c:
                    26:06:26:01:42
                ASN1 OID: prime256v1
                NIST CURVE: P-256
        X509v3 extensions:
            X509v3 Basic Constraints: critical
                CA:FALSE
            X509v3 Key Usage: 
                Digital Signature, Non Repudiation, Key Encipherment
            X509v3 Extended Key Usage: 
                OCSP Signing
            X509v3 Subject Key Identifier: 
                16:BC:05:BD:97:52:3D:1E:1B:09:12:CE:04:EA:12:45:9A:1E:46:EB
            X509v3 Authority Key Identifier: 
                48:7B:7D:22:D6:15:53:0D:ED:7A:14:46:2D:10:B5:9B:73:B3:FB:3F
    Signature Algorithm: ecdsa-with-SHA256
    Signature Value:
        30:45:02:20:7b:1a:03:b4:d8:66:aa:46:67:f0:90:f7:95:6b:
        5b:19:ee:3e:9c:f5:94:9d:99:5b:d9:51:68:69:ad:d9:5a:69:
        02:21:00:bf:7d:84:47:ef:81:4a:cf:20:8a:1c:6f:df:7d:40:
        19:f7:3f:85:66:39:2d:44:5d:6c:2d:6b:6f:cb:51:2e:4d
-----BEGIN CERTIFICATE-----
MIICVjCCAfygAwIBAgIBAjAKBggqhkjOPQQDAjB6MREwDwYDVQQDDAhJU0VOIEFD
STEPMA0GA1UECAwGRnJhbmNlMQswCQYDVQQGEwJGUjEpMCcGCSqGSIb3DQEJARYa
aHVnby5taWxsZXRAaXNlbi55bmNyZWEuZnIxDTALBgNVBAoMBElTRU4xDTALBgNV
BAsMBElTRU4wHhcNMjMwNDMwMTYwMzA3WhcNMjgwNDI4MTYwMzA3WjB7MRIwEAYD
VQQDDAlJU0VOIE9TQ1AxDzANBgNVBAgMBkZyYW5jZTELMAkGA1UEBhMCRlIxKTAn
BgkqhkiG9w0BCQEWGmh1Z28ubWlsbGV0QGlzZW4ueW5jcmVhLmZyMQ0wCwYDVQQK
DARJU0VOMQ0wCwYDVQQLDARJU0VOMFkwEwYHKoZIzj0CAQYIKoZIzj0DAQcDQgAE
nOTZz84s+P2UumkZbAPf1U9ZmGWUux4gjD3MaaYKdVj9KMYX37AqNiiPyQ/t0KKC
i6nBBXDhtcGshwwmBiYBQqNyMHAwDAYDVR0TAQH/BAIwADALBgNVHQ8EBAMCBeAw
EwYDVR0lBAwwCgYIKwYBBQUHAwkwHQYDVR0OBBYEFBa8Bb2XUj0eGwkSzgTqEkWa
HkbrMB8GA1UdIwQYMBaAFEh7fSLWFVMN7XoURi0QtZtzs/s/MAoGCCqGSM49BAMC
A0gAMEUCIHsaA7TYZqpGZ/CQ95VrWxnuPpz1lJ2ZW9lRaGmt2VppAiEAv32ER++B
Ss8gihxv331AGfc/hWY5LURdbC1rb8tRLk0=
-----END CERTIFICATE-----
OCSP Request Data:
    Version: 1 (0x0)
    Requestor List:
        Certificate ID:
          Hash Algorithm: sha1
          Issuer Name Hash: 63157671A98AC0B8FD82ABB275A40C340E3C0ABF
          Issuer Key Hash: 487B7D22D615530DED7A14462D10B59B73B3FB3F
          Serial Number: 03
    Request Extensions:
        OCSP Nonce: 
            0410586CA7C737019E204E6A4C1E3B056645
OCSP Response Data:
    OCSP Response Status: successful (0x0)
    Response Type: Basic OCSP Response
    Version: 1 (0x0)
    Responder Id: CN = ISEN OSCP, ST = France, C = FR, emailAddress = hugo.millet@isen.yncrea.fr, O = ISEN, OU = ISEN
    Produced At: Apr 30 16:06:56 2023 GMT
    Responses:
    Certificate ID:
      Hash Algorithm: sha1
      Issuer Name Hash: 63157671A98AC0B8FD82ABB275A40C340E3C0ABF
      Issuer Key Hash: 487B7D22D615530DED7A14462D10B59B73B3FB3F
      Serial Number: 03
    Cert Status: good
    This Update: Apr 30 16:06:56 2023 GMT

    Response Extensions:
        OCSP Nonce: 
            0410586CA7C737019E204E6A4C1E3B056645
    Signature Algorithm: ecdsa-with-SHA256
    Signature Value:
        30:46:02:21:00:b9:a6:99:2b:47:c9:dd:ac:43:88:9f:f7:ce:
        8b:ec:1b:11:9e:4a:5e:e0:15:f9:26:5b:4c:41:af:b7:0f:a9:
        04:02:21:00:e8:12:02:35:4b:2f:56:ec:f8:f7:03:8f:fa:0f:
        d6:93:45:16:9c:ff:ec:b4:56:c9:31:94:59:ae:88:e1:44:18
Certificate:
    Data:
        Version: 3 (0x2)
        Serial Number: 2 (0x2)
        Signature Algorithm: ecdsa-with-SHA256
        Issuer: CN=ISEN ACI, ST=France, C=FR/emailAddress=hugo.millet@isen.yncrea.fr, O=ISEN, OU=ISEN
        Validity
            Not Before: Apr 30 16:03:07 2023 GMT
            Not After : Apr 28 16:03:07 2028 GMT
        Subject: CN=ISEN OSCP, ST=France, C=FR/emailAddress=hugo.millet@isen.yncrea.fr, O=ISEN, OU=ISEN
        Subject Public Key Info:
            Public Key Algorithm: id-ecPublicKey
                Public-Key: (256 bit)
                pub:
                    04:9c:e4:d9:cf:ce:2c:f8:fd:94:ba:69:19:6c:03:
                    df:d5:4f:59:98:65:94:bb:1e:20:8c:3d:cc:69:a6:
                    0a:75:58:fd:28:c6:17:df:b0:2a:36:28:8f:c9:0f:
                    ed:d0:a2:82:8b:a9:c1:05:70:e1:b5:c1:ac:87:0c:
                    26:06:26:01:42
                ASN1 OID: prime256v1
                NIST CURVE: P-256
        X509v3 extensions:
            X509v3 Basic Constraints: critical
                CA:FALSE
            X509v3 Key Usage: 
                Digital Signature, Non Repudiation, Key Encipherment
            X509v3 Extended Key Usage: 
                OCSP Signing
            X509v3 Subject Key Identifier: 
                16:BC:05:BD:97:52:3D:1E:1B:09:12:CE:04:EA:12:45:9A:1E:46:EB
            X509v3 Authority Key Identifier: 
                48:7B:7D:22:D6:15:53:0D:ED:7A:14:46:2D:10:B5:9B:73:B3:FB:3F
    Signature Algorithm: ecdsa-with-SHA256
    Signature Value:
        30:45:02:20:7b:1a:03:b4:d8:66:aa:46:67:f0:90:f7:95:6b:
        5b:19:ee:3e:9c:f5:94:9d:99:5b:d9:51:68:69:ad:d9:5a:69:
        02:21:00:bf:7d:84:47:ef:81:4a:cf:20:8a:1c:6f:df:7d:40:
        19:f7:3f:85:66:39:2d:44:5d:6c:2d:6b:6f:cb:51:2e:4d
-----BEGIN CERTIFICATE-----
MIICVjCCAfygAwIBAgIBAjAKBggqhkjOPQQDAjB6MREwDwYDVQQDDAhJU0VOIEFD
STEPMA0GA1UECAwGRnJhbmNlMQswCQYDVQQGEwJGUjEpMCcGCSqGSIb3DQEJARYa
aHVnby5taWxsZXRAaXNlbi55bmNyZWEuZnIxDTALBgNVBAoMBElTRU4xDTALBgNV
BAsMBElTRU4wHhcNMjMwNDMwMTYwMzA3WhcNMjgwNDI4MTYwMzA3WjB7MRIwEAYD
VQQDDAlJU0VOIE9TQ1AxDzANBgNVBAgMBkZyYW5jZTELMAkGA1UEBhMCRlIxKTAn
BgkqhkiG9w0BCQEWGmh1Z28ubWlsbGV0QGlzZW4ueW5jcmVhLmZyMQ0wCwYDVQQK
DARJU0VOMQ0wCwYDVQQLDARJU0VOMFkwEwYHKoZIzj0CAQYIKoZIzj0DAQcDQgAE
nOTZz84s+P2UumkZbAPf1U9ZmGWUux4gjD3MaaYKdVj9KMYX37AqNiiPyQ/t0KKC
i6nBBXDhtcGshwwmBiYBQqNyMHAwDAYDVR0TAQH/BAIwADALBgNVHQ8EBAMCBeAw
EwYDVR0lBAwwCgYIKwYBBQUHAwkwHQYDVR0OBBYEFBa8Bb2XUj0eGwkSzgTqEkWa
HkbrMB8GA1UdIwQYMBaAFEh7fSLWFVMN7XoURi0QtZtzs/s/MAoGCCqGSM49BAMC
A0gAMEUCIHsaA7TYZqpGZ/CQ95VrWxnuPpz1lJ2ZW9lRaGmt2VppAiEAv32ER++B
Ss8gihxv331AGfc/hWY5LURdbC1rb8tRLk0=
-----END CERTIFICATE-----
OCSP Request Data:
    Version: 1 (0x0)
    Requestor List:
        Certificate ID:
          Hash Algorithm: sha1
          Issuer Name Hash: 63157671A98AC0B8FD82ABB275A40C340E3C0ABF
          Issuer Key Hash: 487B7D22D615530DED7A14462D10B59B73B3FB3F
          Serial Number: 03
    Request Extensio