OCSP Request Data:
    Version: 1 (0x0)
    Requestor List:
        Certificate ID:
          Hash Algorithm: sha1
          Issuer Name Hash: 63157671A98AC0B8FD82ABB275A40C340E3C0ABF
          Issuer Key Hash: C6354C69A452EF7E1FA26B06603D44934A341972
          Serial Number: 03
    Request Extensions:
        OCSP Nonce: 
            04105F10013631C034C49A174D830AE0CC81
OCSP Response Data:
    OCSP Response Status: successful (0x0)
    Response Type: Basic OCSP Response
    Version: 1 (0x0)
    Responder Id: CN = ISEN OSCP, ST = France, C = FR, emailAddress = hugo.millet@isen.yncrea.fr, O = ISEN, OU = ISEN
    Produced At: Apr 30 15:49:06 2023 GMT
    Responses:
    Certificate ID:
      Hash Algorithm: sha1
      Issuer Name Hash: 63157671A98AC0B8FD82ABB275A40C340E3C0ABF
      Issuer Key Hash: C6354C69A452EF7E1FA26B06603D44934A341972
      Serial Number: 03
    Cert Status: unknown
    This Update: Apr 30 15:49:06 2023 GMT

    Response Extensions:
        OCSP Nonce: 
            04105F10013631C034C49A174D830AE0CC81
    Signature Algorithm: ecdsa-with-SHA256
    Signature Value:
        30:44:02:20:0e:a1:b6:87:5f:ce:8b:b4:33:6c:0e:aa:89:d1:
        02:a7:c3:56:c3:0f:0f:97:d6:25:d7:8f:c5:bf:aa:cf:76:87:
        02:20:44:a3:b9:83:8d:74:f8:8b:83:ca:49:d0:d1:e3:0c:a4:
        d3:58:d5:cd:2c:0f:8a:5c:7e:f3:06:bb:9a:5e:47:77
Certificate:
    Data:
        Version: 3 (0x2)
        Serial Number: 2 (0x2)
        Signature Algorithm: ecdsa-with-SHA256
        Issuer: CN=ISEN ACI, ST=France, C=FR/emailAddress=hugo.millet@isen.yncrea.fr, O=ISEN, OU=ISEN
        Validity
            Not Before: Apr 30 15:47:39 2023 GMT
            Not After : Apr 28 15:47:39 2028 GMT
        Subject: CN=ISEN OSCP, ST=France, C=FR/emailAddress=hugo.millet@isen.yncrea.fr, O=ISEN, OU=ISEN
        Subject Public Key Info:
            Public Key Algorithm: id-ecPublicKey
                Public-Key: (256 bit)
                pub:
                    04:d9:f1:15:54:66:c3:35:79:56:e7:a0:ea:ce:ba:
                    4d:4c:7c:ff:54:8b:2f:b1:6b:b4:3f:6f:d6:11:71:
                    b0:57:8a:7e:9e:f1:b1:b5:05:fe:ef:74:f0:35:01:
                    71:92:a7:15:3e:63:2b:21:88:ae:73:1b:7d:8e:f2:
                    fe:2e:32:c5:db
                ASN1 OID: prime256v1
                NIST CURVE: P-256
        X509v3 extensions:
            X509v3 Basic Constraints: critical
                CA:FALSE
            X509v3 Key Usage: 
                Digital Signature, Non Repudiation, Key Encipherment
            X509v3 Extended Key Usage: 
                OCSP Signing
            X509v3 Subject Key Identifier: 
                F2:4D:A7:36:63:E4:9C:99:37:C4:DB:11:C3:C4:95:48:BE:C0:28:E8
            X509v3 Authority Key Identifier: 
                C6:35:4C:69:A4:52:EF:7E:1F:A2:6B:06:60:3D:44:93:4A:34:19:72
    Signature Algorithm: ecdsa-with-SHA256
    Signature Value:
        30:44:02:20:35:39:16:23:d8:59:bd:3e:d5:bf:dd:33:cc:9e:
        9f:87:08:46:5c:e3:c8:df:3b:fe:3a:96:38:b2:1c:08:18:e2:
        02:20:72:01:c8:2c:5b:31:32:d4:1f:41:c2:d4:8d:70:8f:b2:
        59:19:69:19:89:31:b9:f3:92:9a:80:84:6e:6b:d1:de
-----BEGIN CERTIFICATE-----
MIICVTCCAfygAwIBAgIBAjAKBggqhkjOPQQDAjB6MREwDwYDVQQDDAhJU0VOIEFD
STEPMA0GA1UECAwGRnJhbmNlMQswCQYDVQQGEwJGUjEpMCcGCSqGSIb3DQEJARYa
aHVnby5taWxsZXRAaXNlbi55bmNyZWEuZnIxDTALBgNVBAoMBElTRU4xDTALBgNV
BAsMBElTRU4wHhcNMjMwNDMwMTU0NzM5WhcNMjgwNDI4MTU0NzM5WjB7MRIwEAYD
VQQDDAlJU0VOIE9TQ1AxDzANBgNVBAgMBkZyYW5jZTELMAkGA1UEBhMCRlIxKTAn
BgkqhkiG9w0BCQEWGmh1Z28ubWlsbGV0QGlzZW4ueW5jcmVhLmZyMQ0wCwYDVQQK
DARJU0VOMQ0wCwYDVQQLDARJU0VOMFkwEwYHKoZIzj0CAQYIKoZIzj0DAQcDQgAE
2fEVVGbDNXlW56DqzrpNTHz/VIsvsWu0P2/WEXGwV4p+nvGxtQX+73TwNQFxkqcV
PmMrIYiucxt9jvL+LjLF26NyMHAwDAYDVR0TAQH/BAIwADALBgNVHQ8EBAMCBeAw
EwYDVR0lBAwwCgYIKwYBBQUHAwkwHQYDVR0OBBYEFPJNpzZj5JyZN8TbEcPElUi+
wCjoMB8GA1UdIwQYMBaAFMY1TGmkUu9+H6JrBmA9RJNKNBlyMAoGCCqGSM49BAMC
A0cAMEQCIDU5FiPYWb0+1b/dM8yen4cIRlzjyN87/jqWOLIcCBjiAiByAcgsWzEy
1B9BwtSNcI+yWRlpGYkxufOSmoCEbmvR3g==
-----END CERTIFICATE-----
OCSP Request Data:
    Version: 1 (0x0)
    Requestor List:
        Certificate ID:
          Hash Algor