OCSP Request Data:
    Version: 1 (0x0)
    Requestor List:
        Certificate ID:
          Hash Algorithm: sha1
          Issuer Name Hash: 63157671A98AC0B8FD82ABB275A40C340E3C0ABF
          Issuer Key Hash: B67A2D7D35E0E12247C1482FA54E8450561532E5
          Serial Number: 03
    Request Extensions:
        OCSP Nonce: 
            0410FBC5DA0942756ECBA416516702EE5E0A
OCSP Response Data:
    OCSP Response Status: successful (0x0)
    Response Type: Basic OCSP Response
    Version: 1 (0x0)
    Responder Id: CN = ISEN OSCP, ST = France, C = FR, emailAddress = hugo.millet@isen.yncrea.fr, O = ISEN, OU = ISEN
    Produced At: Apr 30 15:05:38 2023 GMT
    Responses:
    Certificate ID:
      Hash Algorithm: sha1
      Issuer Name Hash: 63157671A98AC0B8FD82ABB275A40C340E3C0ABF
      Issuer Key Hash: B67A2D7D35E0E12247C1482FA54E8450561532E5
      Serial Number: 03
    Cert Status: good
    This Update: Apr 30 15:05:38 2023 GMT

    Response Extensions:
        OCSP Nonce: 
            0410FBC5DA0942756ECBA416516702EE5E0A
    Signature Algorithm: sha256WithRSAEncryption
    Signature Value:
        8d:0d:58:47:2c:de:d7:d9:0d:8a:dd:87:82:48:ef:ce:64:c3:
        66:4e:cd:13:ba:b5:0f:23:b5:08:17:a0:c8:6c:db:a6:10:09:
        8f:b9:65:62:e0:b8:b4:ae:13:05:e0:54:4b:c0:cc:0d:5c:c3:
        57:51:6c:64:ef:65:8f:8f:62:1b:16:6d:71:10:8b:78:7b:06:
        93:f5:21:88:b9:de:3c:5f:13:fe:72:40:64:25:c2:fa:46:e4:
        2d:5c:b5:40:a0:0a:0f:c1:52:d0:dc:36:4b:c3:9c:9e:9b:5e:
        2d:64:17:f1:60:7d:36:37:06:6a:32:c6:07:d7:b5:ff:2b:41:
        88:ff:f5:30:43:d2:6d:ec:7b:b5:f0:11:d5:ec:35:a9:88:f0:
        56:18:4b:27:93:9d:74:b7:ee:39:26:ba:dd:77:df:0d:f9:f7:
        b4:b5:4c:22:79:39:22:d6:8b:69:55:17:17:a1:05:83:91:bb:
        81:19:a9:b1:61:f9:6c:73:57:d1:3c:0c:65:40:1e:d5:d9:81:
        34:92:50:be:ac:8a:57:48:5d:d4:a8:b2:3e:de:b9:7b:8f:82:
        65:0e:61:7c:d1:2e:9b:24:09:17:1b:b8:fe:b4:47:06:12:9e:
        c0:c6:43:da:9b:65:8f:2f:4d:45:ef:81:1f:f2:2c:2e:14:fb:
        ad:c2:3f:5b
Certificate:
    Data:
        Version: 3 (0x2)
        Serial Number: 2 (0x2)
        Signature Algorithm: ecdsa-with-SHA256
        Issuer: CN=ISEN ACI, ST=France, C=FR/emailAddress=hugo.millet@isen.yncrea.fr, O=ISEN, OU=ISEN
        Validity
            Not Before: Apr 30 15:00:15 2023 GMT
            Not After : Apr 29 15:00:15 2024 GMT
        Subject: CN=ISEN OSCP, ST=France, C=FR/emailAddress=hugo.millet@isen.yncrea.fr, O=ISEN, OU=ISEN
        Subject Public Key Info:
            Public Key Algorithm: rsaEncryption
                Public-Key: (2048 bit)
                Modulus:
                    00:9a:40:d9:6a:c7:09:22:5e:a9:8d:6a:8d:0a:2b:
                    8d:b4:de:aa:1f:84:92:f3:3b:93:5d:b0:a2:bd:12:
                    06:66:62:04:58:cd:6c:2f:71:f3:db:f3:a1:83:f0:
                    e1:a5:93:34:b7:50:ae:2f:75:34:44:98:7f:75:72:
                    b9:db:bd:9b:5b:2a:88:9b:c5:cd:34:b4:9b:a5:44:
                    76:04:43:1e:54:67:04:3f:b3:fe:af:aa:0e:9d:ca:
                    b3:85:00:e7:6c:0d:62:fe:08:f7:84:ba:0e:48:c9:
                    03:93:7a:e9:a4:e5:83:9c:d1:76:bf:2e:8b:48:e5:
                    95:65:a7:b7:83:15:b5:1f:22:3e:ab:00:96:db:10:
                    38:91:9a:4d:3b:bc:cf:3c:40:6e:9e:c7:01:36:d5:
                    c5:8e:68:55:2e:33:7c:d0:1f:a9:e1:ed:52:84:9d:
                    1d:6a:60:90:d6:93:da:4f:a7:2a:88:bf:4c:0d:b3:
                    49:f2:75:8a:18:97:3c:b2:d8:0a:08:7a:80:e8:4c:
                    72:98:1c:ff:15:e1:d6:dd:0f:89:b5:ad:e1:94:1d:
                    c2:d2:8e:be:a8:d4:50:85:2e:c5:f6:35:be:ef:b5:
                    8f:96:97:80:a1:95:b8:2f:3c:9f:a9:0f:e9:72:6b:
                    36:1c:90:d7:4c:7c:53:9f:fa:37:2f:c6:5c:86:d7:
                    c3:8f
                Exponent: 65537 (0x10001)
        X509v3 extensions:
            X509v3 Basic Constraints: critical
                CA:TRUE, pathlen:0
            Authority Information Access: 
                OCSP - URI:http://127.0.0.1:8888
            X509v3 Key Usage: 
                Digital Signature, Key Encipherment
            X509v3 Subject Key Identifier: 
                A9:7B:D1:0E:6D:92:37:D1:E6:97:3E:91:E9:61:5C:73:FB:65:A1:FD
            X509v3 Authority Key Identifier: 
                B6:7A:2D:7D:35:E0:E1:22:47:C1:48:2F:A5:4E:84:50:56:15:32:E5
    Signature Algorithm: ecdsa-with-SHA256
    Signature Value:
        30:46:02:21:00:b2:4e:cf:69:a0:87:de:f7:36:5c:f1:cd:fa:
        4f:dc:b5:38:b0:2f:a6:d3:e5:1f:57:84:f9:f4:17:37:7f:19:
        35:02:21:00:f1:75:c4:46:55:c7:c4:bf:04:33:ed:57:3a:2c:
        60:a6:3a:cd:78:cd:13:33:c5:ae:6b:da:12:53:36:c9:02:59
-----BEGIN CERTIFICATE-----
MIIDSDCCAu2gAwIBAgIBAjAKBggqhkjOPQQDAjB6MREwDwYDVQQDDAhJU0VOIEFD
STEPMA0GA1UECAwGRnJhbmNlMQswCQYDVQQGEwJGUjEpMCcGCSqGSIb3DQEJARYa
aHVnby5taWxsZXRAaXNlbi55bmNyZWEuZnIxDTALBgNVBAoMBElTRU4xDTALBgNV
BAsMBElTRU4wHhcNMjMwNDMwMTUwMDE1WhcNMjQwNDI5MTUwMDE1WjB7MRIwEAYD
VQQDDAlJU0VOIE9TQ1AxDzANBgNVBAgMBkZyYW5jZTELMAkGA1UEBhMCRlIxKTAn
BgkqhkiG9w0BCQEWGmh1Z28ubWlsbGV0QGlzZW4ueW5jcmVhLmZyMQ0wCwYDVQQK
DARJU0VOMQ0wCwYDVQQLDARJU0VOMIIBIjANBgkqhkiG9w0BAQEFAAOCAQ8AMIIB
CgKCAQEAmkDZascJIl6pjWqNCiuNtN6qH4SS8zuTXbCivRIGZmIEWM1sL3Hz2/Oh
g/DhpZM0t1CuL3U0RJh/dXK5272bWyqIm8XNNLSbpUR2BEMeVGcEP7P+r6oOncqz
hQDnbA1i/gj3hLoOSMkDk3rppOWDnNF2vy6LSOWVZae3gxW1HyI+qwCW2xA4kZpN
O7zPPEBunscBNtXFjmhVLjN80B+p4e1ShJ0damCQ1pPaT6cqiL9MDbNJ8nWKGJc8
stgKCHqA6ExymBz/FeHW3Q+Jta3hlB3C0o6+qNRQhS7F9jW+77WPlpeAoZW4Lzyf
qQ/pcms2HJDXTHxTn/o3L8ZchtfDjwIDAQABo4GXMIGUMBIGA1UdEwEB/wQIMAYB
Af8CAQAwMQYIKwYBBQUHAQEEJTAjMCEGCCsGAQUFBzABhhVodHRwOi8vMTI3LjAu
MC4xOjg4ODgwCwYDVR0PBAQDAgWgMB0GA1UdDgQWBBSpe9EObZI30eaXPpHpYVxz
+2Wh/TAfBgNVHSMEGDAWgBS2ei19NeDhIkfBSC+lToRQVhUy5TAKBggqhkjOPQQD
AgNJADBGAiEAsk7PaaCH3vc2XPHN+k/ctTiwL6bT5R9XhPn0Fzd/GTUCIQDxdcRG
VcfEvwQz7Vc6LGCmOs14zRMzxa5r2hJTNskCWQ==
-----END CERTIFICATE-----
OCSP Request Data:
    Version: 1 (0x0)
    Requestor List:
        Certificate ID:
          Hash Algorithm: sha1
          Issuer Name Hash: 63157671A98AC0B8FD82ABB275A40C340E3C0ABF
          Issuer Key Hash: B67A2D7D35E0E12247C1482FA54E8450561532E5
          Serial Number: 03
    Request Extensions:
        OCSP Nonce: 
            0410137469A8C8DB093E30007F32E9381FF5
OCSP Response Data:
    OCSP Response Status: successful (0x0)
    Response Type: Basic OCSP Response
    Version: 1 (0x0)
    Responder Id: CN = ISEN OSCP, ST = France, C = FR, emailAddress = hugo.millet@isen.yncrea.fr, O = ISEN, OU = ISEN
    Produced At: Apr 30 15:07:51 2023 GMT
    Responses:
    Certificate ID:
      Hash Algorithm: sha1
      Issuer Name Hash: 63157671A98AC0B8FD82ABB275A40C340E3C0ABF
      Issuer Key Hash: B67A2D7D35E0E12247C1482FA54E8450561532E5
      Serial Number: 03
    Cert Status: good
    This Update: Apr 30 15:07:51 2023 GMT

    Response Extensions:
        OCSP Nonce: 
            0410137469A8C8DB093E30007F32E9381FF5
    Signature Algorithm: sha256WithRSAEncryption
    Signature Value:
        0b:17:79:13:97:58:cd:82:31:36:3d:ce:fd:a4:02:0d:28:73:
        6f:8d:26:02:58:47:43:75:44:d0:ac:92:c2:3d:60:57:50:47:
        1c:33:73:dc:34:ff:34:ea:11:b9:c0:35:2f:d4:09:25:07:bd:
        0c:72:c0:d7:d8:44:2c:08:a8:ea:95:96:21:78:4e:7b:e1:0c:
        95:25:a0:70:ec:dd:d6:ee:15:c8:37:0e:56:60:e0:a8:c9:78:
        05:8c:5a:4b:96:e4:fc:dd:cf:45:b5:37:f8:11:9a:39:3f:d0:
        35:90:b2:06:1b:97:4d:0c:dd:64:91:75:f8:2e:ad:f3:f5:6b:
        2e:70:2b:85:2a:0c:ad:44:27:9b:58:57:5b:58:70:0e:5e:cc:
        92:36:5e:7d:63:e9:55:3e:12:39:a8:43:d2:41:36:f1:d5:2d:
        5e:80:fd:a9:a1:12:0b:62:c1:91:23:f3:eb:b7:5d:30:b0:13:
        13:63:3d:dc:a8:04:ad:0f:3e:0b:18:9f:ed:ba:a5:87:67:10:
        59:ff:2c:64:c0:ff:94:0a:0f:de:d8:2f:99:64:bb:5c:04:47:
        f8:dd:7a:d9:21:e1:9a:af:68:9a:ac:d7:90:50:7a:44:99:1a:
        af:c9:b8:95:f4:85:a0:c5:3f:be:32:f6:14:e0:58:4d:d7:93:
        f8:9e:5f:78
Certificate:
    Data:
        Version: 3 (0x2)
        Serial Number: 2 (0x2)
        Signature Algorithm: ecdsa-with-SHA256
        Issuer: CN=ISEN ACI, ST=France, C=FR/emailAddress=hugo.millet@isen.yncrea.fr, O=ISEN, OU=ISEN
        Validity
            Not Before: Apr 30 15:00:15 2023 GMT
            Not After : Apr 29 15:00:15 2024 GMT
        Subject: CN=ISEN OSCP, ST=France, C=FR/emailAddress=hugo.millet@isen.yncrea.fr, O=ISEN, OU=ISEN
        Subject Public Key Info:
            Public Key Algorithm: rsaEncryption
                Public-Key: (2048 bit)
                Modulus:
                    00:9a:40:d9:6a:c7:09:22:5e:a9:8d:6a:8d:0a:2b:
                    8d:b4:de:aa:1f:84:92:f3:3b:93:5d:b0:a2:bd:12:
                    06:66:62:04:58:cd:6c:2f:71:f3:db:f3:a1:83:f0:
                    e1:a5:93:34:b7:50:ae:2f:75:34:44:98:7f:75:72:
                    b9:db:bd:9b:5b:2a:88:9b:c5:cd:34:b4:9b:a5:44:
                    76:04:43:1e:54:67:04:3f:b3:fe:af:aa:0e:9d:ca:
                    b3:85:00:e7:6c:0d:62:fe:08:f7:84:ba:0e:48:c9:
                    03:93:7a:e9:a4:e5:83:9c:d1:76:bf:2e:8b:48:e5:
                    95:65:a7:b7:83:15:b5:1f:22:3e:ab:00:96:db:10:
                    38:91:9a:4d:3b:bc:cf:3c:40:6e:9e:c7:01:36:d5:
                    c5:8e:68:55:2e:33:7c:d0:1f:a9:e1:ed:52:84:9d:
                    1d:6a:60:90:d6:93:da:4f:a7:2a:88:bf:4c:0d:b3:
                    49:f2:75:8a:18:97:3c:b2:d8:0a:08:7a:80:e8:4c:
                    72:98:1c:ff:15:e1:d6:dd:0f:89:b5:ad:e1:94:1d:
                    c2:d2:8e:be:a8:d4:50:85:2e:c5:f6:35:be:ef:b5:
                    8f:96:97:80:a1:95:b8:2f:3c:9f:a9:0f:e9:72:6b:
                    36:1c:90:d7:4c:7c:53:9f:fa:37:2f:c6:5c:86:d7:
                    c3:8f
                Exponent: 65537 (0x10001)
        X509v3 extensions:
            X509v3 Basic Constraints: critical
                CA:TRUE, pathlen:0
            Authority Information Access: 
                OCSP - URI:http://127.0.0.1:8888
            X509v3 Key Usage: 
                Digital Signature, Key Encipherment
            X509v3 Subject Key Identifier: 
                A9:7B:D1:0E:6D:92:37:D1:E6:97:3E:91:E9:61:5C:73:FB:65:A1:FD
            X509v3 Authority Key Identifier: 
                B6:7A:2D:7D:35:E0:E1:22:47:C1:48:2F:A5:4E:84:50:56:15:32:E5
    Signature Algorithm: ecdsa-with-SHA256
    Signature Value:
        30:46:02:21:00:b2:4e:cf:69:a0:87:de:f7:36:5c:f1:cd:fa:
        4f:dc:b5:38:b0:2f:a6:d3:e5:1f:57:84:f9:f4:17:37:7f:19:
        35:02:21:00:f1:75:c4:46:55:c7:c4:bf:04:33:ed:57:3a:2c:
        60:a6:3a:cd:78:cd:13:33:c5:ae:6b:da:12:53:36:c9:02:59
-----BEGIN CERTIFICATE-----
MIIDSDCCAu2gAwIBAgIBAjAKBggqhkjOPQQDAjB6MREwDwYDVQQDDAhJU0VOIEFD
STEPMA0GA1UECAwGRnJhbmNlMQswCQYDVQQGEwJGUjEpMCcGCSqGSIb3DQEJARYa
aHVnby5taWxsZXRAaXNlbi55bmNyZWEuZnIxDTALBgNVBAoMBElTRU4xDTALBgNV
BAsMBElTRU4wHhcNMjMwNDMwMTUwMDE1WhcNMjQwNDI5MTUwMDE1WjB7MRIwEAYD
VQQDDAlJU0VOIE9TQ1AxDzANBgNVBAgMBkZyYW5jZTELMAkGA1UEBhMCRlIxKTAn
BgkqhkiG9w0BCQEWGmh1Z28ubWlsbGV0QGlzZW4ueW5jcmVhLmZyMQ0wCwYDVQQK
DARJU0VOMQ0wCwYDVQQLDARJU0VOMIIBIjANBgkqhkiG9w0BAQEFAAOCAQ8AMIIB
CgKCAQEAmkDZascJIl6pjWqNCiuNtN6qH4SS8zuTXbCivRIGZmIEWM1sL3Hz2/Oh
g/DhpZM0t1CuL3U0RJh/dXK5272bWyqIm8XNNLSbpUR2BEMeVGcEP7P+r6oOncqz
hQDnbA1i/gj3hLoOSMkDk3rppOWDnNF2vy6LSOWVZae3gxW1HyI+qwCW2xA4kZpN
O7zPPEBunscBNtXFjmhVLjN80B+p4e1ShJ0damCQ1pPaT6cqiL9MDbNJ8nWKGJc8
stgKCHqA6ExymBz/FeHW3Q+Jta3hlB3C0o6+qNRQhS7F9jW+77WPlpeAoZW4Lzyf
qQ/pcms2HJDXTHxTn/o3L8ZchtfDjwIDAQABo4GXMIGUMBIGA1UdEwEB/wQIMAYB
Af8CAQAwMQYIKwYBBQUHAQEEJTAjMCEGCCsGAQUFBzABhhVodHRwOi8vMTI3LjAu
MC4xOjg4ODgwCwYDVR0PBAQDAgWgMB0GA1UdDgQWBBSpe9EObZI30eaXPpHpYVxz
+2Wh/TAfBgNVHSMEGDAWgBS2ei19NeDhIkfBSC+lToRQVhUy5TAKBggqhkjOPQQD
AgNJADBGAiEAsk7PaaCH3vc2XPHN+k/ctTiwL6bT5R9XhPn0Fzd/GTUCIQDxdcRG
VcfEvwQz7Vc6LGCmOs14zRMzxa5r2hJTNskCWQ==
-----END CERTIFICATE-----
OCSP Request Data:
    Version: 1 (0x0)
    Requestor List:
        Certificate ID:
          Hash Algorithm: sha1
          Issuer Name Hash: 63157671A98AC0B8FD82ABB275A40C340E3C0ABF
          Issuer Key Hash: B67A2D7D35E0E12247C1482FA54E8450561532E5
          Serial Number: 03
    Request Extensions:
        OCSP Nonce: 
            0410E12CB15DF316B94D218F4C1245A284A5
OCSP Response Data:
    OCSP Response Status: successful (0x0)
    Response Type: Basic OCSP Response
    Version: 1 (0x0)
    Responder Id: CN = ISEN OSCP, ST = France, C = FR, emailAddress = hugo.millet@isen.yncrea.fr, O = ISEN, OU = ISEN
    Produced At: Apr 30 15:07:52 2023 GMT
    Responses:
    Certificate ID:
      Hash Algorithm: sha1
      Issuer Name Hash: 63157671A98AC0B8FD82ABB275A40C340E3C0ABF
      Issuer Key Hash: B67A2D7D35E0E12247C1482FA54E8450561532E5
      Serial Number: 03
    Cert Status: revoked
    Revocation Time: Apr 30 15:07:46 2023 GMT
    This Update: Apr 30 15:07:52 2023 GMT

    Response Extensions:
        OCSP Nonce: 
            0410E12CB15DF316B94D218F4C1245A284A5
    Signature Algorithm: sha256WithRSAEncryption
    Signature Value:
        61:f9:14:ef:f7:e3:41:75:c1:93:9d:80:2a:23:76:cf:46:bb:
        4a:e2:0f:f4:05:15:85:17:d0:37:10:13:0e:03:b6:ee:ca:c3:
        31:a9:4b:6b:da:4d:5c:24:bf:1a:10:ef:38:03:34:79:e8:39:
        b1:72:30:60:15:9a:3d:fc:9c:fc:50:b7:0b:ee:e0:a6:a1:6b:
        81:be:7d:f8:4b:a5:ed:a3:77:40:99:ef:4f:eb:d6:c9:1d:b3:
        17:0e:c8:79:8e:78:29:00:b2:35:f3:d6:33:7e:78:69:af:f2:
        37:f8:93:82:19:d9:18:e8:47:3b:f3:68:07:9c:36:e1:11:b3:
        ed:99:9d:59:18:fb:00:27:1e:a2:38:6c:df:28:59:6e:6a:cc:
        23:34:e2:98:28:15:aa:6d:94:88:53:56:c0:e6:53:08:0a:84:
        4b:7b:b9:3b:3d:75:68:22:a1:d6:3c:b8:23:53:e6:d6:43:6a:
        18:6f:1d:41:51:0e:ca:6f:93:ca:08:fe:39:38:e6:df:3f:7f:
        7b:36:52:d6:23:cb:36:31:46:da:07:9e:58:d0:04:6e:12:61:
        1d:8c:75:de:a7:47:c4:ee:8e:2a:82:6a:31:de:09:bd:41:bc:
        04:85:d3:b9:2d:1e:58:1a:54:79:a9:87:25:a6:d6:e3:8c:11:
        71:54:1a:ed
Certificate:
    Data:
        Version: 3 (0x2)
        Serial Number: 2 (0x2)
        Signature Algorithm: ecdsa-with-SHA256
        Issuer: CN=ISEN ACI, ST=France, C=FR/emailAddress=hugo.millet@isen.yncrea.fr, O=ISEN, OU=ISEN
        Validity
            Not Before: Apr 30 15:00:15 2023 GMT
            Not After : Apr 29 15:00:15 2024 GMT
        Subject: CN=ISEN OSCP, ST=France, C=FR/emailAddress=hugo.millet@isen.yncrea.fr, O=ISEN, OU=ISEN
        Subject Public Key Info:
            Public Key Algorithm: rsaEncryption
                Public-Key: (2048 bit)
                Modulus:
                    00:9a:40:d9:6a:c7:09:22:5e:a9:8d:6a:8d:0a:2b:
                    8d:b4:de:aa:1f:84:92:f3:3b:93:5d:b0:a2:bd:12:
                    06:66:62:04:58:cd:6c:2f:71:f3:db:f3:a1:83:f0:
                    e1:a5:93:34:b7:50:ae:2f:75:34:44:98:7f:75:72:
                    b9:db:bd:9b:5b:2a:88:9b:c5:cd:34:b4:9b:a5:44:
                    76:04:43:1e:54:67:04:3f:b3:fe:af:aa:0e:9d:ca:
                    b3:85:00:e7:6c:0d:62:fe:08:f7:84:ba:0e:48:c9:
                    03:93:7a:e9:a4:e5:83:9c:d1:76:bf:2e:8b:48:e5:
                    95:65:a7:b7:83:15:b5:1f:22:3e:ab:00:96:db:10:
                    38:91:9a:4d:3b:bc:cf:3c:40:6e:9e:c7:01:36:d5:
                    c5:8e:68:55:2e:33:7c:d0:1f:a9:e1:ed:52:84:9d:
                    1d:6a:60:90:d6:93:da:4f:a7:2a:88:bf:4c:0d:b3:
                    49:f2:75:8a:18:97:3c:b2:d8:0a:08:7a:80:e8:4c:
                    72:98:1c:ff:15:e1:d6:dd:0f:89:b5:ad:e1:94:1d:
                    c2:d2:8e:be:a8:d4:50:85:2e:c5:f6:35:be:ef:b5:
                    8f:96:97:80:a1:95:b8:2f:3c:9f:a9:0f:e9:72:6b:
                    36:1c:90:d7:4c:7c:53:9f:fa:37:2f:c6:5c:86:d7:
                    c3:8f
                Exponent: 65537 (0x10001)
        X509v3 extensions:
            X509v3 Basic Constraints: critical
                CA:TRUE, pathlen:0
            Authority Information Access: 
                OCSP - URI:http://127.0.0.1:8888
            X509v3 Key Usage: 
                Digital Signature, Key Encipherment
            X509v3 Subject Key Identifier: 
                A9:7B:D1:0E:6D:92:37:D1:E6:97:3E:91:E9:61:5C:73:FB:65:A1:FD
            X509v3 Authority Key Identifier: 
                B6:7A:2D:7D:35:E0:E1:22:47:C1:48:2F:A5:4E:84:50:56:15:32:E5
    Signature Algorithm: ecdsa-with-SHA256
    Signature Value:
        30:46:02:21:00:b2:4e:cf:69:a0:87:de:f7:36:5c:f1:cd:fa:
        4f:dc:b5:38:b0:2f:a6:d3:e5:1f:57:84:f9:f4:17:37:7f:19:
        35:02:21:00:f1:75:c4:46:55:c7:c4:bf:04:33:ed:57:3a:2c:
        60:a6:3a:cd:78:cd:13:33:c5:ae:6b:da:12:53:36:c9:02:59
-----BEGIN CERTIFICATE-----
MIIDSDCCAu2gAwIBAgIBAjAKBg