Certificate:
    Data:
        Version: 3 (0x2)
        Serial Number: 2 (0x2)
        Signature Algorithm: ecdsa-with-SHA256
        Issuer: CN=ISEN ACI, ST=France, C=FR/emailAddress=hugo.millet@isen.yncrea.fr, O=ISEN, OU=ISEN
        Validity
            Not Before: Apr 30 12:05:17 2023 GMT
            Not After : Apr 29 12:05:17 2024 GMT
        Subject: CN=ISEN OSCP, ST=France, C=FR/emailAddress=hugo.millet@isen.yncrea.fr, O=ISEN, OU=ISEN
        Subject Public Key Info:
            Public Key Algorithm: rsaEncryption
                Public-Key: (2048 bit)
                Modulus:
                    00:86:26:ad:40:9d:f1:c4:35:d5:ed:85:86:b0:1b:
                    5c:fe:6a:ff:dc:6c:39:e4:32:7d:bd:71:b1:9f:43:
                    11:1e:54:3c:6f:6a:9f:70:8a:78:1d:44:73:aa:57:
                    d7:a1:08:bb:c4:88:49:6f:d6:7c:6a:2e:77:2f:b0:
                    80:6b:3c:d5:87:5a:ad:76:75:88:94:f6:82:52:f6:
                    67:0d:08:eb:33:09:13:3c:65:a0:06:d3:97:39:08:
                    12:cf:41:85:49:8a:88:71:ad:04:52:a6:90:b8:06:
                    4b:d8:ef:64:35:e4:7c:11:65:7f:93:b1:65:f1:08:
                    cf:36:c8:cc:47:8f:b8:1e:ee:9f:88:2a:8b:15:0d:
                    ec:57:d4:ce:e6:6a:db:5c:99:82:fa:c2:dd:a5:3a:
                    73:f9:6f:a0:45:0e:91:8f:44:63:7a:1c:94:89:4a:
                    bc:60:f8:f1:ad:a1:06:44:6b:4e:16:0a:72:bc:43:
                    02:b8:9c:6f:a2:31:69:95:eb:df:a2:7f:16:3d:62:
                    9d:64:ca:04:28:6c:05:64:b1:8f:bb:3e:ab:6a:c4:
                    c2:40:1b:59:20:d8:7a:96:ad:96:1f:ca:b3:54:eb:
                    25:0c:25:c9:11:61:0b:a6:8b:93:da:28:da:f4:a1:
                    42:ed:21:cc:6a:df:43:1d:c3:18:d8:16:2b:29:07:
                    85:ab
                Exponent: 65537 (0x10001)
        X509v3 extensions:
            X509v3 Basic Constraints: critical
                CA:TRUE, pathlen:0
            Authority Information Access: 
                OCSP - URI:http://127.0.0.1:8888
            X509v3 Key Usage: 
                Digital Signature, Key Encipherment
            X509v3 Subject Key Identifier: 
                9F:7E:F5:39:96:93:87:B8:D8:E6:8D:77:E0:56:AF:B4:2A:7B:CA:42
            X509v3 Authority Key Identifier: 
                7B:B7:23:42:1B:41:21:76:BF:22:AE:D4:58:44:59:E2:D7:08:45:37
    Signature Algorithm: ecdsa-with-SHA256
    Signature Value:
        30:65:02:31:00:e7:5a:17:06:54:02:47:8d:5d:e9:02:4d:6c:
        f0:ec:fe:a2:34:c2:d0:03:e7:91:b6:c2:62:0b:77:ac:f7:f1:
        12:56:ca:de:00:84:65:a6:54:43:ec:1c:fd:63:82:30:79:02:
        30:77:7d:3b:2a:1d:53:4d:58:b3:24:21:35:00:95:c8:c9:7a:
        74:fc:8e:47:1c:32:df:c0:1f:d5:4d:56:a5:4a:35:19:ee:51:
        8c:4f:7c:c4:2a:d2:43:15:82:21:40:16:f5
-----BEGIN CERTIFICATE-----
MIIDZzCCAu2gAwIBAgIBAjAKBggqhkjOPQQDAjB6MREwDwYDVQQDDAhJU0VOIEFD
STEPMA0GA1UECAwGRnJhbmNlMQswCQYDVQQGEwJGUjEpMCcGCSqGSIb3DQEJARYa
aHVnby5taWxsZXRAaXNlbi55bmNyZWEuZnIxDTALBgNVBAoMBElTRU4xDTALBgNV
BAsMBElTRU4wHhcNMjMwNDMwMTIwNTE3WhcNMjQwNDI5MTIwNTE3WjB7MRIwEAYD
VQQDDAlJU0VOIE9TQ1AxDzANBgNVBAgMBkZyYW5jZTELMAkGA1UEBhMCRlIxKTAn
BgkqhkiG9w0BCQEWGmh1Z28ubWlsbGV0QGlzZW4ueW5jcmVhLmZyMQ0wCwYDVQQK
DARJU0VOMQ0wCwYDVQQLDARJU0VOMIIBIjANBgkqhkiG9w0BAQEFAAOCAQ8AMIIB
CgKCAQEAhiatQJ3xxDXV7YWGsBtc/mr/3Gw55DJ9vXGxn0MRHlQ8b2qfcIp4HURz
qlfXoQi7xIhJb9Z8ai53L7CAazzVh1qtdnWIlPaCUvZnDQjrMwkTPGWgBtOXOQgS
z0GFSYqIca0EUqaQuAZL2O9kNeR8EWV/k7Fl8QjPNsjMR4+4Hu6fiCqLFQ3sV9TO
5mrbXJmC+sLdpTpz+W+gRQ6Rj0RjehyUiUq8YPjxraEGRGtOFgpyvEMCuJxvojFp
levfon8WPWKdZMoEKGwFZLGPuz6rasTCQBtZINh6lq2WH8qzVOslDCXJEWELpouT
2ija9KFC7SHMat9DHcMY2BYrKQeFqwIDAQABo4GXMIGUMBIGA1UdEwEB/wQIMAYB
Af8CAQAwMQYIKwYBBQUHAQEEJTAjMCEGCCsGAQUFBzABhhVodHRwOi8vMTI3LjAu
MC4xOjg4ODgwCwYDVR0PBAQDAgWgMB0GA1UdDgQWBBSffvU5lpOHuNjmjXfgVq+0
KnvKQjAfBgNVHSMEGDAWgBR7tyNCG0Ehdr8irtRYRFni1whFNzAKBggqhkjOPQQD
AgNoADBlAjEA51oXBlQCR41d6QJNbPDs/qI0wtAD55G2wmILd6z38RJWyt4AhGWm
VEPsHP1jgjB5AjB3fTsqHVNNWLMkITUAlcjJenT8jkccMt/AH9VNVqVKNRnuUYxP
fMQq0kMVgiFAFvU=
-----END CERTIFICATE-----
