Certificate:
    Data:
        Version: 3 (0x2)
        Serial Number: 2 (0x2)
        Signature Algorithm: ecdsa-with-SHA256
        Issuer: CN=ISEN ACI, ST=France, C=FR/emailAddress=hugo.millet@isen.yncrea.fr, O=ISEN, OU=ISEN
        Validity
            Not Before: Apr 28 13:36:01 2023 GMT
            Not After : Apr 27 13:36:01 2024 GMT
        Subject: CN=ISEN OSCP, ST=France, C=FR/emailAddress=hugo.millet@isen.yncrea.fr, O=ISEN, OU=ISEN
        Subject Public Key Info:
            Public Key Algorithm: rsaEncryption
                Public-Key: (2048 bit)
                Modulus:
                    00:c5:53:f6:45:68:c3:5a:45:49:02:f1:d0:3d:7b:
                    cc:87:c8:e9:75:9a:34:88:61:c8:51:c3:a8:d0:a2:
                    9d:a2:b6:b6:b6:15:12:98:db:19:7f:16:9c:76:b2:
                    49:f0:08:60:0b:a6:bb:a2:fe:49:f0:ab:bd:cc:a9:
                    3a:0f:e3:77:0d:3f:9e:11:80:5f:b3:e4:8d:2a:dd:
                    40:ab:01:64:98:ae:22:70:2d:1e:f9:10:c6:fe:36:
                    d6:ab:47:25:6f:11:a7:c5:01:b9:da:49:7a:0b:28:
                    2e:41:8b:eb:f9:51:fd:dc:82:af:a8:2b:c9:2d:fb:
                    ed:48:f2:fb:53:57:6e:8c:a9:90:fd:17:0d:0c:96:
                    7e:53:1a:f3:6b:0b:92:4b:aa:db:2f:6a:6d:d0:47:
                    88:e1:27:16:23:02:04:de:fe:53:47:89:6f:4b:62:
                    e6:d9:0c:bf:17:d1:5b:6c:46:a4:c3:ad:b5:fa:fe:
                    85:2c:bb:1f:27:6e:17:44:e7:26:fa:bf:68:5a:fb:
                    f9:fc:07:1d:e1:44:83:55:94:ef:7f:65:f6:2f:f9:
                    67:1c:9f:7a:bc:b5:c8:f9:ee:07:a9:d3:51:05:7f:
                    77:60:6b:1a:95:4c:90:45:06:aa:b0:64:5b:29:4b:
                    e6:38:6b:26:78:52:bb:19:5b:17:f6:c9:43:b2:21:
                    2f:db
                Exponent: 65537 (0x10001)
        X509v3 extensions:
            X509v3 Basic Constraints: critical
                CA:TRUE, pathlen:0
            X509v3 Key Usage: 
                Digital Signature, Key Encipherment
            X509v3 Subject Key Identifier: 
                5F:9B:2F:29:D1:7B:8F:15:90:8B:47:84:78:57:0C:20:AD:33:1E:2C
            X509v3 Authority Key Identifier: 
                68:67:11:CD:F3:D7:1E:22:49:58:B9:4A:20:4F:9E:9D:B9:04:7D:69
    Signature Algorithm: ecdsa-with-SHA256
    Signature Value:
        30:65:02:31:00:9a:2c:6e:f9:3f:fb:ad:df:3c:3b:f5:45:71:
        27:0e:70:df:93:a0:7d:93:99:5c:0c:63:44:a9:5c:10:b2:09:
        81:b2:29:a8:5d:f3:2e:8d:43:d9:99:31:9c:85:29:8a:65:02:
        30:60:7d:fc:9e:3d:ca:d9:a9:ef:2e:0d:8a:63:97:15:01:cd:
        30:b2:eb:4b:1d:a8:1f:24:c2:e4:36:93:6c:0e:50:16:89:fe:
        bb:99:3d:4f:ae:44:76:2f:9c:93:1c:96:b2
-----BEGIN CERTIFICATE-----
MIIDMjCCArigAwIBAgIBAjAKBggqhkjOPQQDAjB6MREwDwYDVQQDDAhJU0VOIEFD
STEPMA0GA1UECAwGRnJhbmNlMQswCQYDVQQGEwJGUjEpMCcGCSqGSIb3DQEJARYa
aHVnby5taWxsZXRAaXNlbi55bmNyZWEuZnIxDTALBgNVBAoMBElTRU4xDTALBgNV
BAsMBElTRU4wHhcNMjMwNDI4MTMzNjAxWhcNMjQwNDI3MTMzNjAxWjB7MRIwEAYD
VQQDDAlJU0VOIE9TQ1AxDzANBgNVBAgMBkZyYW5jZTELMAkGA1UEBhMCRlIxKTAn
BgkqhkiG9w0BCQEWGmh1Z28ubWlsbGV0QGlzZW4ueW5jcmVhLmZyMQ0wCwYDVQQK
DARJU0VOMQ0wCwYDVQQLDARJU0VOMIIBIjANBgkqhkiG9w0BAQEFAAOCAQ8AMIIB
CgKCAQEAxVP2RWjDWkVJAvHQPXvMh8jpdZo0iGHIUcOo0KKdora2thUSmNsZfxac
drJJ8AhgC6a7ov5J8Ku9zKk6D+N3DT+eEYBfs+SNKt1AqwFkmK4icC0e+RDG/jbW
q0clbxGnxQG52kl6CyguQYvr+VH93IKvqCvJLfvtSPL7U1dujKmQ/RcNDJZ+Uxrz
awuSS6rbL2pt0EeI4ScWIwIE3v5TR4lvS2Lm2Qy/F9FbbEakw621+v6FLLsfJ24X
ROcm+r9oWvv5/Acd4USDVZTvf2X2L/lnHJ96vLXI+e4HqdNRBX93YGsalUyQRQaq
sGRbKUvmOGsmeFK7GVsX9slDsiEv2wIDAQABo2MwYTASBgNVHRMBAf8ECDAGAQH/
AgEAMAsGA1UdDwQEAwIFoDAdBgNVHQ4EFgQUX5svKdF7jxWQi0eEeFcMIK0zHiww
HwYDVR0jBBgwFoAUaGcRzfPXHiJJWLlKIE+enbkEfWkwCgYIKoZIzj0EAwIDaAAw
ZQIxAJosbvk/+63fPDv1RXEnDnDfk6B9k5lcDGNEqVwQsgmBsimoXfMujUPZmTGc
hSmKZQIwYH38nj3K2anvLg2KY5cVAc0wsutLHagfJMLkNpNsDlAWif67mT1PrkR2
L5yTHJay
-----END CERTIFICATE-----
