Certificate:
    Data:
        Version: 3 (0x2)
        Serial Number: 2 (0x2)
        Signature Algorithm: ecdsa-with-SHA256
        Issuer: CN=ISEN ACI, ST=France, C=FR/emailAddress=hugo.millet@isen.yncrea.fr, O=ISEN, OU=ISEN
        Validity
            Not Before: Apr 26 15:34:26 2023 GMT
            Not After : Apr 25 15:34:26 2024 GMT
        Subject: CN=ISEN OSCP, ST=France, C=FR/emailAddress=hugo.millet@isen.yncrea.fr, O=ISEN, OU=ISEN
        Subject Public Key Info:
            Public Key Algorithm: rsaEncryption
                Public-Key: (2048 bit)
                Modulus:
                    00:cd:06:78:17:08:c3:aa:f0:63:2d:68:42:d0:df:
                    05:a4:6d:79:65:2b:08:3a:7c:6d:39:7c:6a:bd:b3:
                    84:d1:c1:c1:49:ee:9c:7e:ab:e7:08:81:42:71:97:
                    7d:4d:2c:e2:d5:f5:1a:7f:9a:d1:07:c4:58:d4:5b:
                    ff:ee:97:35:29:03:2d:58:71:d2:66:a5:bb:82:60:
                    b8:a6:c2:bd:b0:d6:80:be:e0:84:5c:a0:a7:7c:eb:
                    7e:f3:4c:ed:39:d6:43:11:23:cd:01:4e:22:de:89:
                    9d:26:81:fe:a8:29:1e:b9:52:c2:72:7e:0d:90:ca:
                    e7:f4:d7:94:e9:94:9a:a9:9e:35:7e:e9:69:1b:15:
                    a2:2c:b3:e5:fd:02:68:3e:24:a2:f6:c1:cf:a2:9c:
                    d2:74:61:6d:9d:d8:5a:9d:c7:1e:b8:70:41:bf:37:
                    e7:de:84:42:57:0b:e6:02:df:25:58:3c:ce:db:c0:
                    83:d2:47:00:1a:59:9f:1d:d3:f2:e4:82:31:d6:ce:
                    98:b6:50:5f:77:b0:fa:e2:48:82:40:64:34:0b:89:
                    56:56:b3:02:55:cb:db:91:cf:4e:70:aa:db:ef:c5:
                    c8:83:7e:bb:13:fb:42:9d:62:8c:e4:b9:67:d2:0f:
                    dd:88:57:83:ea:b6:7a:50:15:c7:fc:b3:73:b7:a1:
                    db:91
                Exponent: 65537 (0x10001)
        X509v3 extensions:
            X509v3 Basic Constraints: critical
                CA:TRUE, pathlen:0
            X509v3 Key Usage: 
                Digital Signature, Key Encipherment
            X509v3 Subject Key Identifier: 
                B1:AB:DC:DE:53:C9:AF:79:DB:68:2F:6D:C6:AA:3B:66:AD:F0:81:43
            X509v3 Authority Key Identifier: 
                C0:95:CE:D7:5D:09:5F:F7:31:AB:63:44:43:5A:1A:F9:A0:65:D8:A0
    Signature Algorithm: ecdsa-with-SHA256
    Signature Value:
        30:65:02:31:00:cf:64:98:a1:02:c4:62:6f:b6:e2:a1:9d:63:
        f5:0e:70:27:92:15:16:df:b9:0a:fc:ba:5f:62:3a:e3:58:8f:
        01:b5:dd:a7:79:b2:04:75:49:37:4f:9d:0f:d1:70:a8:02:02:
        30:7b:96:6e:fc:11:22:60:c2:2e:45:c1:57:c5:8c:03:8d:d2:
        20:5f:7e:2d:54:8e:92:b9:f4:b3:e4:33:fb:09:15:0c:7b:00:
        98:cb:16:3f:e3:26:b1:d1:89:c2:9a:44:56
-----BEGIN CERTIFICATE-----
MIIDMjCCArigAwIBAgIBAjAKBggqhkjOPQQDAjB6MREwDwYDVQQDDAhJU0VOIEFD
STEPMA0GA1UECAwGRnJhbmNlMQswCQYDVQQGEwJGUjEpMCcGCSqGSIb3DQEJARYa
aHVnby5taWxsZXRAaXNlbi55bmNyZWEuZnIxDTALBgNVBAoMBElTRU4xDTALBgNV
BAsMBElTRU4wHhcNMjMwNDI2MTUzNDI2WhcNMjQwNDI1MTUzNDI2WjB7MRIwEAYD
VQQDDAlJU0VOIE9TQ1AxDzANBgNVBAgMBkZyYW5jZTELMAkGA1UEBhMCRlIxKTAn
BgkqhkiG9w0BCQEWGmh1Z28ubWlsbGV0QGlzZW4ueW5jcmVhLmZyMQ0wCwYDVQQK
DARJU0VOMQ0wCwYDVQQLDARJU0VOMIIBIjANBgkqhkiG9w0BAQEFAAOCAQ8AMIIB
CgKCAQEAzQZ4FwjDqvBjLWhC0N8FpG15ZSsIOnxtOXxqvbOE0cHBSe6cfqvnCIFC
cZd9TSzi1fUaf5rRB8RY1Fv/7pc1KQMtWHHSZqW7gmC4psK9sNaAvuCEXKCnfOt+
80ztOdZDESPNAU4i3omdJoH+qCkeuVLCcn4NkMrn9NeU6ZSaqZ41fulpGxWiLLPl
/QJoPiSi9sHPopzSdGFtndhancceuHBBvzfn3oRCVwvmAt8lWDzO28CD0kcAGlmf
HdPy5IIx1s6YtlBfd7D64kiCQGQ0C4lWVrMCVcvbkc9OcKrb78XIg367E/tCnWKM
5Lln0g/diFeD6rZ6UBXH/LNzt6HbkQIDAQABo2MwYTASBgNVHRMBAf8ECDAGAQH/
AgEAMAsGA1UdDwQEAwIFoDAdBgNVHQ4EFgQUsavc3lPJr3nbaC9txqo7Zq3wgUMw
HwYDVR0jBBgwFoAUwJXO110JX/cxq2NEQ1oa+aBl2KAwCgYIKoZIzj0EAwIDaAAw
ZQIxAM9kmKECxGJvtuKhnWP1DnAnkhUW37kK/LpfYjrjWI8Btd2nebIEdUk3T50P
0XCoAgIwe5Zu/BEiYMIuRcFXxYwDjdIgX34tVI6SufSz5DP7CRUMewCYyxY/4yax
0YnCmkRW
-----END CERTIFICATE-----
