Certificate:
    Data:
        Version: 3 (0x2)
        Serial Number: 2 (0x2)
        Signature Algorithm: ecdsa-with-SHA256
        Issuer: CN=ISEN ACI, ST=France, C=FR/emailAddress=hugo.millet@isen.yncrea.fr, O=ISEN, OU=ISEN
        Validity
            Not Before: Apr 27 17:57:29 2023 GMT
            Not After : Apr 26 17:57:29 2024 GMT
        Subject: CN=ISEN OSCP, ST=France, C=FR/emailAddress=hugo.millet@isen.yncrea.fr, O=ISEN, OU=ISEN
        Subject Public Key Info:
            Public Key Algorithm: rsaEncryption
                Public-Key: (2048 bit)
                Modulus:
                    00:ba:1b:0b:5d:ee:1f:d5:41:8b:2a:fd:75:41:31:
                    96:33:6b:5f:af:98:d7:bc:7b:c1:dc:db:68:1c:e8:
                    ea:e4:fd:a8:46:7e:4e:44:69:99:51:93:2f:68:46:
                    cb:77:5e:b7:f9:1f:6e:41:37:c6:b4:f0:bb:98:67:
                    e0:63:62:53:5e:1c:d3:6a:41:bb:98:1c:f7:32:e1:
                    fb:a7:ca:df:f7:de:81:78:fd:78:51:45:44:3b:1d:
                    ba:a2:dd:77:18:ed:d5:74:66:02:9d:4b:06:fb:e9:
                    31:5c:72:a0:68:90:62:58:76:de:9e:08:a2:f5:42:
                    73:d0:4e:74:89:ac:15:93:1c:13:2f:ca:1d:18:34:
                    09:c9:c0:20:a7:65:e9:5a:2d:c4:e1:2b:a7:84:1a:
                    ae:4e:1a:d8:9f:12:22:25:c4:a1:97:ce:bf:15:13:
                    04:f7:0a:66:b2:40:94:d8:32:58:c4:96:4d:fa:b6:
                    90:9b:3f:c3:2d:29:ec:11:80:cc:b4:48:54:33:85:
                    8c:23:d1:cc:b0:c5:af:3f:7c:9c:58:59:68:9a:8d:
                    74:3e:1d:a4:51:86:f0:cd:3d:2c:51:3c:62:8d:ca:
                    94:31:04:65:4a:0a:a6:e5:5d:b0:81:94:e9:9b:3d:
                    31:bb:e3:b6:63:9b:a5:5e:d9:b6:ad:28:4d:e2:76:
                    89:e1
                Exponent: 65537 (0x10001)
        X509v3 extensions:
            X509v3 Basic Constraints: critical
                CA:TRUE, pathlen:0
            X509v3 Key Usage: 
                Digital Signature, Key Encipherment
            X509v3 Subject Key Identifier: 
                7B:A9:20:8C:25:7D:D3:2E:77:BD:09:25:76:EC:79:0B:87:96:64:20
            X509v3 Authority Key Identifier: 
                C2:55:ED:FE:A2:CC:4A:D8:E4:3A:17:85:9A:A6:27:C5:49:B5:FC:C3
    Signature Algorithm: ecdsa-with-SHA256
    Signature Value:
        30:66:02:31:00:b0:71:9a:40:30:68:08:7f:b2:92:87:a4:d0:
        64:a3:21:c0:35:5c:38:59:23:ec:37:9a:db:aa:03:a6:77:75:
        a1:71:2d:87:91:60:47:05:81:5b:29:86:28:60:65:83:7d:02:
        31:00:a9:f7:a2:a1:92:07:88:ea:b5:62:70:37:56:51:2d:ea:
        7b:f8:a5:b4:1f:42:c6:fe:7a:83:1f:e9:12:10:99:38:35:30:
        b9:de:36:2c:92:e0:26:a7:63:d4:65:9c:d6:29
-----BEGIN CERTIFICATE-----
MIIDMzCCArigAwIBAgIBAjAKBggqhkjOPQQDAjB6MREwDwYDVQQDDAhJU0VOIEFD
STEPMA0GA1UECAwGRnJhbmNlMQswCQYDVQQGEwJGUjEpMCcGCSqGSIb3DQEJARYa
aHVnby5taWxsZXRAaXNlbi55bmNyZWEuZnIxDTALBgNVBAoMBElTRU4xDTALBgNV
BAsMBElTRU4wHhcNMjMwNDI3MTc1NzI5WhcNMjQwNDI2MTc1NzI5WjB7MRIwEAYD
VQQDDAlJU0VOIE9TQ1AxDzANBgNVBAgMBkZyYW5jZTELMAkGA1UEBhMCRlIxKTAn
BgkqhkiG9w0BCQEWGmh1Z28ubWlsbGV0QGlzZW4ueW5jcmVhLmZyMQ0wCwYDVQQK
DARJU0VOMQ0wCwYDVQQLDARJU0VOMIIBIjANBgkqhkiG9w0BAQEFAAOCAQ8AMIIB
CgKCAQEAuhsLXe4f1UGLKv11QTGWM2tfr5jXvHvB3NtoHOjq5P2oRn5ORGmZUZMv
aEbLd163+R9uQTfGtPC7mGfgY2JTXhzTakG7mBz3MuH7p8rf996BeP14UUVEOx26
ot13GO3VdGYCnUsG++kxXHKgaJBiWHbengii9UJz0E50iawVkxwTL8odGDQJycAg
p2XpWi3E4SunhBquThrYnxIiJcShl86/FRME9wpmskCU2DJYxJZN+raQmz/DLSns
EYDMtEhUM4WMI9HMsMWvP3ycWFlomo10Ph2kUYbwzT0sUTxijcqUMQRlSgqm5V2w
gZTpmz0xu+O2Y5ulXtm2rShN4naJ4QIDAQABo2MwYTASBgNVHRMBAf8ECDAGAQH/
AgEAMAsGA1UdDwQEAwIFoDAdBgNVHQ4EFgQUe6kgjCV90y53vQkldux5C4eWZCAw
HwYDVR0jBBgwFoAUwlXt/qLMStjkOheFmqYnxUm1/MMwCgYIKoZIzj0EAwIDaQAw
ZgIxALBxmkAwaAh/spKHpNBkoyHANVw4WSPsN5rbqgOmd3WhcS2HkWBHBYFbKYYo
YGWDfQIxAKn3oqGSB4jqtWJwN1ZRLep7+KW0H0LG/nqDH+kSEJk4NTC53jYskuAm
p2PUZZzWKQ==
-----END CERTIFICATE-----
