Certificate:
    Data:
        Version: 3 (0x2)
        Serial Number: 2 (0x2)
        Signature Algorithm: ecdsa-with-SHA256
        Issuer: CN=ISEN ACI, ST=France, C=FR/emailAddress=hugo.millet@isen.yncrea.fr, O=ISEN, OU=ISEN
        Validity
            Not Before: Apr 28 14:35:15 2023 GMT
            Not After : Apr 27 14:35:15 2024 GMT
        Subject: CN=ISEN OSCP, ST=France, C=FR/emailAddress=hugo.millet@isen.yncrea.fr, O=ISEN, OU=ISEN
        Subject Public Key Info:
            Public Key Algorithm: rsaEncryption
                Public-Key: (2048 bit)
                Modulus:
                    00:b4:a2:a9:49:f3:29:c5:c9:fe:fc:df:29:87:f7:
                    5e:5c:cf:0b:2f:20:c4:66:a4:18:52:de:70:c0:36:
                    7c:7e:1d:f4:ea:f9:a4:8a:90:ee:04:b8:f5:96:77:
                    61:bc:60:f5:94:90:3a:7c:71:23:9d:9b:10:af:55:
                    16:8c:3e:5e:7c:55:d2:5f:7f:21:80:3a:8c:39:db:
                    d1:ea:6c:b1:de:8d:42:fa:66:32:69:2a:0c:8a:9f:
                    d9:5e:45:86:d5:d5:d2:d4:c2:10:9a:30:f8:86:6f:
                    39:72:ab:87:9b:09:7d:e6:64:43:ff:f8:46:0d:42:
                    cd:0c:d6:e5:7d:04:c8:27:de:a7:20:5e:0c:08:11:
                    ca:9f:7b:a0:7f:18:05:bf:63:71:80:37:cc:51:b7:
                    1c:ad:b0:ea:7b:59:98:38:c2:9e:f2:57:af:56:d2:
                    ee:c3:6c:c5:d4:0a:67:ba:0c:b0:32:95:b6:85:f0:
                    c2:09:c6:49:16:97:4f:80:ca:de:a6:af:00:44:e2:
                    cd:8a:93:a8:f1:3e:99:27:b9:d6:a9:9a:5d:14:61:
                    7c:eb:98:63:35:b7:ce:0b:5b:91:f6:43:3c:cd:76:
                    51:e1:57:70:2d:d8:24:8f:da:fc:c1:d0:61:b2:7e:
                    1c:0f:0d:20:e8:41:9d:68:cb:1a:53:28:07:fe:fa:
                    69:97
                Exponent: 65537 (0x10001)
        X509v3 extensions:
            X509v3 Basic Constraints: critical
                CA:TRUE, pathlen:0
            Authority Information Access: 
                OCSP - URI:http://127.0.0.1:8888
            X509v3 Key Usage: 
                Digital Signature, Key Encipherment
            X509v3 Subject Key Identifier: 
                E0:EF:D4:55:9A:4E:5D:A1:B4:AA:C7:BD:9F:E8:CD:84:6A:65:81:E0
            X509v3 Authority Key Identifier: 
                F1:46:B3:95:98:78:9E:CA:B2:A7:22:B7:37:CC:07:7E:A7:9D:A4:4A
    Signature Algorithm: ecdsa-with-SHA256
    Signature Value:
        30:65:02:30:30:88:b2:df:ec:aa:59:07:51:a5:3b:d1:c1:28:
        63:c8:d8:75:fc:d7:22:c5:28:61:92:bf:21:ad:c1:8f:45:31:
        d9:b3:01:e5:fe:d4:ed:9f:36:97:f1:9c:ca:9e:f2:93:02:31:
        00:e7:84:5a:d2:70:d9:0e:18:7b:c4:07:c6:2f:26:61:bb:67:
        73:3e:e9:ea:c2:fd:5d:ab:f2:89:ff:fa:e6:93:32:a7:78:73:
        9d:99:b6:83:74:80:b3:8a:3d:3e:0c:da:7f
-----BEGIN CERTIFICATE-----
MIIDZzCCAu2gAwIBAgIBAjAKBggqhkjOPQQDAjB6MREwDwYDVQQDDAhJU0VOIEFD
STEPMA0GA1UECAwGRnJhbmNlMQswCQYDVQQGEwJGUjEpMCcGCSqGSIb3DQEJARYa
aHVnby5taWxsZXRAaXNlbi55bmNyZWEuZnIxDTALBgNVBAoMBElTRU4xDTALBgNV
BAsMBElTRU4wHhcNMjMwNDI4MTQzNTE1WhcNMjQwNDI3MTQzNTE1WjB7MRIwEAYD
VQQDDAlJU0VOIE9TQ1AxDzANBgNVBAgMBkZyYW5jZTELMAkGA1UEBhMCRlIxKTAn
BgkqhkiG9w0BCQEWGmh1Z28ubWlsbGV0QGlzZW4ueW5jcmVhLmZyMQ0wCwYDVQQK
DARJU0VOMQ0wCwYDVQQLDARJU0VOMIIBIjANBgkqhkiG9w0BAQEFAAOCAQ8AMIIB
CgKCAQEAtKKpSfMpxcn+/N8ph/deXM8LLyDEZqQYUt5wwDZ8fh306vmkipDuBLj1
lndhvGD1lJA6fHEjnZsQr1UWjD5efFXSX38hgDqMOdvR6myx3o1C+mYyaSoMip/Z
XkWG1dXS1MIQmjD4hm85cquHmwl95mRD//hGDULNDNblfQTIJ96nIF4MCBHKn3ug
fxgFv2NxgDfMUbccrbDqe1mYOMKe8levVtLuw2zF1ApnugywMpW2hfDCCcZJFpdP
gMrepq8AROLNipOo8T6ZJ7nWqZpdFGF865hjNbfOC1uR9kM8zXZR4VdwLdgkj9r8
wdBhsn4cDw0g6EGdaMsaUygH/vpplwIDAQABo4GXMIGUMBIGA1UdEwEB/wQIMAYB
Af8CAQAwMQYIKwYBBQUHAQEEJTAjMCEGCCsGAQUFBzABhhVodHRwOi8vMTI3LjAu
MC4xOjg4ODgwCwYDVR0PBAQDAgWgMB0GA1UdDgQWBBTg79RVmk5dobSqx72f6M2E
amWB4DAfBgNVHSMEGDAWgBTxRrOVmHieyrKnIrc3zAd+p52kSjAKBggqhkjOPQQD
AgNoADBlAjAwiLLf7KpZB1GlO9HBKGPI2HX81yLFKGGSvyGtwY9FMdmzAeX+1O2f
NpfxnMqe8pMCMQDnhFrScNkOGHvEB8YvJmG7Z3M+6erC/V2r8on/+uaTMqd4c52Z
toN0gLOKPT4M2n8=
-----END CERTIFICATE-----
