Certificate:
    Data:
        Version: 3 (0x2)
        Serial Number: 1 (0x1)
        Signature Algorithm: ecdsa-with-SHA256
        Issuer: CN=ISEN ACR, ST=France, C=FR/emailAddress=hugo.millet@isen.yncrea.fr, O=ISEN, OU=ISEN
        Validity
            Not Before: Apr 23 08:45:59 2023 GMT
            Not After : Apr 18 08:45:59 2043 GMT
        Subject: CN=ISEN ACR, ST=France, C=FR/emailAddress=hugo.millet@isen.yncrea.fr, O=ISEN, OU=ISEN
        Subject Public Key Info:
            Public Key Algorithm: id-ecPublicKey
                Public-Key: (384 bit)
                pub:
                    04:8e:1c:7e:08:ea:71:a6:b4:ba:17:e6:b2:e9:b0:
                    bb:f4:69:8e:4c:10:c2:fd:65:ac:34:2d:0b:67:59:
                    c3:2f:d8:9a:09:fa:e2:13:5e:af:6d:af:c7:97:4a:
                    23:85:fe:da:11:83:45:56:6d:dc:01:2f:a2:b3:04:
                    b4:90:15:cd:df:38:2e:21:84:58:32:0b:23:64:15:
                    7a:aa:8f:f7:dc:e1:30:7f:b0:3b:a6:f6:03:25:98:
                    ce:80:bf:18:71:c9:f7
                ASN1 OID: secp384r1
                NIST CURVE: P-384
        X509v3 extensions:
            X509v3 Basic Constraints: critical
                CA:TRUE, pathlen:1
            X509v3 Key Usage: 
                Digital Signature, Key Encipherment, Certificate Sign
            X509v3 Subject Key Identifier: 
                2B:B6:EE:F5:AC:66:FB:65:74:96:C3:64:25:F3:A8:BB:16:C2:CC:C4
    Signature Algorithm: ecdsa-with-SHA256
    Signature Value:
        30:64:02:30:27:8f:e3:34:30:31:a0:0a:15:d8:8b:27:32:63:
        fe:cc:de:00:7c:56:e3:4c:d8:9a:1b:d9:c7:f4:72:d3:f6:90:
        a6:04:4c:fa:30:d4:c6:1f:71:da:c5:b3:bd:03:0f:72:02:30:
        78:79:61:77:30:ef:ba:5a:4e:be:b6:3f:1e:33:99:ac:ed:f7:
        4e:b2:50:50:7a:79:71:51:b0:6d:56:64:45:48:50:8f:ad:cc:
        0c:da:37:b9:b5:1a:65:2c:4f:1f:41:df
-----BEGIN CERTIFICATE-----
MIICYTCCAeigAwIBAgIBATAKBggqhkjOPQQDAjB6MREwDwYDVQQDDAhJU0VOIEFD
UjEPMA0GA1UECAwGRnJhbmNlMQswCQYDVQQGEwJGUjEpMCcGCSqGSIb3DQEJARYa
aHVnby5taWxsZXRAaXNlbi55bmNyZWEuZnIxDTALBgNVBAoMBElTRU4xDTALBgNV
BAsMBElTRU4wHhcNMjMwNDIzMDg0NTU5WhcNNDMwNDE4MDg0NTU5WjB6MREwDwYD
VQQDDAhJU0VOIEFDUjEPMA0GA1UECAwGRnJhbmNlMQswCQYDVQQGEwJGUjEpMCcG
CSqGSIb3DQEJARYaaHVnby5taWxsZXRAaXNlbi55bmNyZWEuZnIxDTALBgNVBAoM
BElTRU4xDTALBgNVBAsMBElTRU4wdjAQBgcqhkjOPQIBBgUrgQQAIgNiAASOHH4I
6nGmtLoX5rLpsLv0aY5MEML9Zaw0LQtnWcMv2JoJ+uITXq9tr8eXSiOF/toRg0VW
bdwBL6KzBLSQFc3fOC4hhFgyCyNkFXqqj/fc4TB/sDum9gMlmM6AvxhxyfejQjBA
MBIGA1UdEwEB/wQIMAYBAf8CAQEwCwYDVR0PBAQDAgKkMB0GA1UdDgQWBBQrtu71
rGb7ZXSWw2Ql86i7FsLMxDAKBggqhkjOPQQDAgNnADBkAjAnj+M0MDGgChXYiycy
Y/7M3gB8VuNM2Job2cf0ctP2kKYETPow1MYfcdrFs70DD3ICMHh5YXcw77paTr62
Px4zmazt906yUFB6eXFRsG1WZEVIUI+tzAzaN7m1GmUsTx9B3w==
-----END CERTIFICATE-----
