Certificate:
    Data:
        Version: 3 (0x2)
        Serial Number: 1 (0x1)
        Signature Algorithm: ecdsa-with-SHA256
        Issuer: CN=ISEN ACR, ST=France, C=FR/emailAddress=hugo.millet@isen.yncrea.fr, O=ISEN, OU=ISEN
        Validity
            Not Before: Apr 23 08:36:09 2023 GMT
            Not After : Apr 18 08:36:09 2043 GMT
        Subject: CN=ISEN ACR, ST=France, C=FR/emailAddress=hugo.millet@isen.yncrea.fr, O=ISEN, OU=ISEN
        Subject Public Key Info:
            Public Key Algorithm: id-ecPublicKey
                Public-Key: (384 bit)
                pub:
                    04:df:ba:37:f3:8a:0e:d9:19:cb:a6:38:89:57:8d:
                    ca:28:d3:41:bb:e4:34:7f:8d:09:54:60:11:65:07:
                    99:a8:6b:7c:05:54:d1:69:a6:71:5b:d1:2b:2b:f4:
                    d7:43:3a:20:6b:11:85:00:08:35:6d:2a:72:65:74:
                    14:ed:66:10:f8:28:40:be:ab:91:c0:9d:d0:5a:49:
                    d5:e5:5d:ba:ab:66:6c:37:ab:90:f9:97:bf:9c:25:
                    af:74:77:c1:5b:e9:68
                ASN1 OID: secp384r1
                NIST CURVE: P-384
        X509v3 extensions:
            X509v3 Basic Constraints: critical
                CA:TRUE, pathlen:0
            X509v3 Key Usage: 
                Digital Signature, Key Encipherment, Certificate Sign
            X509v3 Subject Key Identifier: 
                35:B7:1B:AD:B8:19:2C:96:BE:06:C4:3A:86:7F:6E:ED:3F:10:E7:8D
    Signature Algorithm: ecdsa-with-SHA256
    Signature Value:
        30:65:02:31:00:82:cb:a2:28:6e:d2:4d:ec:b5:40:d9:7e:bf:
        1e:6f:d4:2d:b5:1c:fe:74:58:80:c6:e2:8a:45:08:d6:8d:72:
        84:c0:d7:38:1f:91:3f:88:57:c4:46:93:62:dc:c3:3a:08:02:
        30:21:5c:9b:d8:e9:7d:f9:5c:c9:cd:b6:31:c7:1a:ac:cc:5d:
        91:78:04:d7:b6:23:37:47:fb:70:c3:0b:c4:b6:1a:74:87:f4:
        63:8d:08:cb:9a:54:21:29:f8:af:0f:b8:e8
-----BEGIN CERTIFICATE-----
MIICYjCCAeigAwIBAgIBATAKBggqhkjOPQQDAjB6MREwDwYDVQQDDAhJU0VOIEFD
UjEPMA0GA1UECAwGRnJhbmNlMQswCQYDVQQGEwJGUjEpMCcGCSqGSIb3DQEJARYa
aHVnby5taWxsZXRAaXNlbi55bmNyZWEuZnIxDTALBgNVBAoMBElTRU4xDTALBgNV
BAsMBElTRU4wHhcNMjMwNDIzMDgzNjA5WhcNNDMwNDE4MDgzNjA5WjB6MREwDwYD
VQQDDAhJU0VOIEFDUjEPMA0GA1UECAwGRnJhbmNlMQswCQYDVQQGEwJGUjEpMCcG
CSqGSIb3DQEJARYaaHVnby5taWxsZXRAaXNlbi55bmNyZWEuZnIxDTALBgNVBAoM
BElTRU4xDTALBgNVBAsMBElTRU4wdjAQBgcqhkjOPQIBBgUrgQQAIgNiAATfujfz
ig7ZGcumOIlXjcoo00G75DR/jQlUYBFlB5moa3wFVNFppnFb0Ssr9NdDOiBrEYUA
CDVtKnJldBTtZhD4KEC+q5HAndBaSdXlXbqrZmw3q5D5l7+cJa90d8Fb6WijQjBA
MBIGA1UdEwEB/wQIMAYBAf8CAQAwCwYDVR0PBAQDAgKkMB0GA1UdDgQWBBQ1txut
uBkslr4GxDqGf27tPxDnjTAKBggqhkjOPQQDAgNoADBlAjEAgsuiKG7STey1QNl+
vx5v1C21HP50WIDG4opFCNaNcoTA1zgfkT+IV8RGk2LcwzoIAjAhXJvY6X35XMnN
tjHHGqzMXZF4BNe2IzdH+3DDC8S2GnSH9GONCMuaVCEp+K8PuOg=
-----END CERTIFICATE-----
