Certificate:
    Data:
        Version: 3 (0x2)
        Serial Number: 1 (0x1)
        Signature Algorithm: ecdsa-with-SHA256
        Issuer: CN=ISEN ACR, ST=France, C=FR/emailAddress=hugo.millet@isen.yncrea.fr, O=ISEN, OU=ISEN
        Validity
            Not Before: Apr 28 14:35:14 2023 GMT
            Not After : Apr 23 14:35:14 2043 GMT
        Subject: CN=ISEN ACR, ST=France, C=FR/emailAddress=hugo.millet@isen.yncrea.fr, O=ISEN, OU=ISEN
        Subject Public Key Info:
            Public Key Algorithm: id-ecPublicKey
                Public-Key: (384 bit)
                pub:
                    04:35:42:82:e2:b3:28:7e:ab:32:ca:af:7a:62:8f:
                    77:5b:e3:51:76:42:20:53:aa:81:97:87:db:8b:be:
                    bb:87:fc:c9:1f:c2:b7:bc:bf:c5:4a:39:4b:6e:21:
                    47:f3:57:ce:06:c5:03:8b:32:3e:1d:1e:d6:bb:37:
                    b7:9c:1f:7d:8b:ce:a9:f5:90:f3:1e:ec:38:f4:2e:
                    d3:b1:40:ba:36:03:a7:43:ba:64:d1:a5:08:5c:31:
                    d0:2f:5a:c3:6f:a6:79
                ASN1 OID: secp384r1
                NIST CURVE: P-384
        X509v3 extensions:
            X509v3 Basic Constraints: critical
                CA:TRUE, pathlen:1
            X509v3 Key Usage: 
                Digital Signature, Key Encipherment, Certificate Sign
            X509v3 Subject Key Identifier: 
                E3:3F:D0:3F:B6:60:CE:A5:EF:A9:11:A9:35:4E:BC:A8:84:61:B5:B1
    Signature Algorithm: ecdsa-with-SHA256
    Signature Value:
        30:66:02:31:00:ad:c0:1f:15:72:fe:f2:18:4f:7f:12:cd:57:
        ea:b5:1a:96:75:55:35:7e:af:5c:da:16:50:74:f8:57:7c:f6:
        57:b1:ef:06:de:87:69:77:2f:5d:23:d5:0e:41:c6:00:f9:02:
        31:00:bd:20:cb:d5:5a:80:8a:7f:d5:e4:c0:46:70:e6:d3:98:
        8b:15:1e:56:c2:3f:9d:81:0f:d7:44:a7:14:81:fe:07:d9:bc:
        59:6e:77:f0:07:24:4d:1c:5b:70:fb:0d:1c:d0
-----BEGIN CERTIFICATE-----
MIICYzCCAeigAwIBAgIBATAKBggqhkjOPQQDAjB6MREwDwYDVQQDDAhJU0VOIEFD
UjEPMA0GA1UECAwGRnJhbmNlMQswCQYDVQQGEwJGUjEpMCcGCSqGSIb3DQEJARYa
aHVnby5taWxsZXRAaXNlbi55bmNyZWEuZnIxDTALBgNVBAoMBElTRU4xDTALBgNV
BAsMBElTRU4wHhcNMjMwNDI4MTQzNTE0WhcNNDMwNDIzMTQzNTE0WjB6MREwDwYD
VQQDDAhJU0VOIEFDUjEPMA0GA1UECAwGRnJhbmNlMQswCQYDVQQGEwJGUjEpMCcG
CSqGSIb3DQEJARYaaHVnby5taWxsZXRAaXNlbi55bmNyZWEuZnIxDTALBgNVBAoM
BElTRU4xDTALBgNVBAsMBElTRU4wdjAQBgcqhkjOPQIBBgUrgQQAIgNiAAQ1QoLi
syh+qzLKr3pij3db41F2QiBTqoGXh9uLvruH/Mkfwre8v8VKOUtuIUfzV84GxQOL
Mj4dHta7N7ecH32Lzqn1kPMe7Dj0LtOxQLo2A6dDumTRpQhcMdAvWsNvpnmjQjBA
MBIGA1UdEwEB/wQIMAYBAf8CAQEwCwYDVR0PBAQDAgKkMB0GA1UdDgQWBBTjP9A/
tmDOpe+pEak1TryohGG1sTAKBggqhkjOPQQDAgNpADBmAjEArcAfFXL+8hhPfxLN
V+q1GpZ1VTV+r1zaFlB0+Fd89lex7wbeh2l3L10j1Q5BxgD5AjEAvSDL1VqAin/V
5MBGcObTmIsVHlbCP52BD9dEpxSB/gfZvFlud/AHJE0cW3D7DRzQ
-----END CERTIFICATE-----
