Certificate:
    Data:
        Version: 3 (0x2)
        Serial Number: 1 (0x1)
        Signature Algorithm: ecdsa-with-SHA256
        Issuer: CN=ISEN ACR, ST=France, C=FR/emailAddress=hugo.millet@isen.yncrea.fr, O=ISEN, OU=ISEN
        Validity
            Not Before: Apr 30 14:26:06 2023 GMT
            Not After : Apr 25 14:26:06 2043 GMT
        Subject: CN=ISEN ACR, ST=France, C=FR/emailAddress=hugo.millet@isen.yncrea.fr, O=ISEN, OU=ISEN
        Subject Public Key Info:
            Public Key Algorithm: id-ecPublicKey
                Public-Key: (384 bit)
                pub:
                    04:af:2e:9a:c1:5f:43:20:a7:c8:67:04:d7:75:de:
                    6c:b8:39:79:1d:81:69:bf:9a:52:61:f4:6e:e9:7a:
                    38:0e:6a:89:47:6e:c4:e4:b2:2e:e5:60:d5:eb:ac:
                    8d:a7:31:00:fd:69:2a:0b:0f:7d:37:d2:7c:24:c8:
                    21:75:65:a0:db:fd:bd:53:eb:ad:da:6c:7d:19:1a:
                    2b:90:cf:63:90:a4:34:a9:93:0c:e5:fb:b5:a4:01:
                    ba:df:a3:4f:a0:de:d9
                ASN1 OID: secp384r1
                NIST CURVE: P-384
        X509v3 extensions:
            X509v3 Basic Constraints: critical
                CA:TRUE, pathlen:1
            X509v3 Key Usage: 
                Digital Signature, Key Encipherment, Certificate Sign
            X509v3 Subject Key Identifier: 
                AF:55:97:3A:76:54:58:BB:E8:67:DC:AC:96:DF:B0:A5:BE:EF:B9:89
    Signature Algorithm: ecdsa-with-SHA256
    Signature Value:
        30:65:02:30:2f:19:d4:f5:d5:39:94:94:a8:95:20:9b:22:e3:
        cc:7e:c3:27:95:b2:4b:de:7e:43:7e:96:02:43:45:16:7c:b5:
        8c:e4:c2:c4:f9:33:ab:ee:9e:8b:17:e9:2f:0a:96:06:02:31:
        00:88:b0:1e:ee:19:33:ba:7f:19:f1:fc:6f:72:79:00:b6:7b:
        74:7e:10:a1:d3:29:57:5e:86:6e:1e:f7:23:4c:3b:a1:6a:1e:
        96:9c:3a:b4:eb:b6:b8:de:d1:4e:48:b2:e2
-----BEGIN CERTIFICATE-----
MIICYjCCAeigAwIBAgIBATAKBggqhkjOPQQDAjB6MREwDwYDVQQDDAhJU0VOIEFD
UjEPMA0GA1UECAwGRnJhbmNlMQswCQYDVQQGEwJGUjEpMCcGCSqGSIb3DQEJARYa
aHVnby5taWxsZXRAaXNlbi55bmNyZWEuZnIxDTALBgNVBAoMBElTRU4xDTALBgNV
BAsMBElTRU4wHhcNMjMwNDMwMTQyNjA2WhcNNDMwNDI1MTQyNjA2WjB6MREwDwYD
VQQDDAhJU0VOIEFDUjEPMA0GA1UECAwGRnJhbmNlMQswCQYDVQQGEwJGUjEpMCcG
CSqGSIb3DQEJARYaaHVnby5taWxsZXRAaXNlbi55bmNyZWEuZnIxDTALBgNVBAoM
BElTRU4xDTALBgNVBAsMBElTRU4wdjAQBgcqhkjOPQIBBgUrgQQAIgNiAASvLprB
X0Mgp8hnBNd13my4OXkdgWm/mlJh9G7pejgOaolHbsTksi7lYNXrrI2nMQD9aSoL
D3030nwkyCF1ZaDb/b1T663abH0ZGiuQz2OQpDSpkwzl+7WkAbrfo0+g3tmjQjBA
MBIGA1UdEwEB/wQIMAYBAf8CAQEwCwYDVR0PBAQDAgKkMB0GA1UdDgQWBBSvVZc6
dlRYu+hn3KyW37Clvu+5iTAKBggqhkjOPQQDAgNoADBlAjAvGdT11TmUlKiVIJsi
48x+wyeVskvefkN+lgJDRRZ8tYzkwsT5M6vunosX6S8KlgYCMQCIsB7uGTO6fxnx
/G9yeQC2e3R+EKHTKVdehm4e9yNMO6FqHpacOrTrtrje0U5IsuI=
-----END CERTIFICATE-----
