Certificate:
    Data:
        Version: 3 (0x2)
        Serial Number: 1 (0x1)
        Signature Algorithm: ecdsa-with-SHA256
        Issuer: CN=ISEN ACR, ST=France, C=FR/emailAddress=hugo.millet@isen.yncrea.fr, O=ISEN, OU=ISEN
        Validity
            Not Before: Apr 24 12:53:01 2023 GMT
            Not After : Apr 19 12:53:01 2043 GMT
        Subject: CN=ISEN ACR, ST=France, C=FR/emailAddress=hugo.millet@isen.yncrea.fr, O=ISEN, OU=ISEN
        Subject Public Key Info:
            Public Key Algorithm: id-ecPublicKey
                Public-Key: (384 bit)
                pub:
                    04:d3:85:74:91:52:6b:55:e3:3e:a6:f4:9a:dd:d0:
                    0a:aa:a0:56:b9:39:f6:b4:d0:08:b4:b8:25:2a:fe:
                    9d:48:27:bb:b8:f9:05:8a:d9:f5:a6:3e:c9:8c:17:
                    af:44:6d:83:24:96:50:ad:4b:da:90:5c:48:64:05:
                    49:6d:0f:c3:e2:56:1a:ac:2e:1e:17:44:d3:85:1a:
                    fd:ed:62:65:27:0c:b4:9d:47:1e:04:ed:ba:31:92:
                    18:ef:93:79:a4:3c:5d
                ASN1 OID: secp384r1
                NIST CURVE: P-384
        X509v3 extensions:
            X509v3 Basic Constraints: critical
                CA:TRUE, pathlen:1
            X509v3 Key Usage: 
                Digital Signature, Key Encipherment, Certificate Sign
            X509v3 Subject Key Identifier: 
                6E:7D:35:3D:21:36:C7:D6:CC:26:8B:A5:11:18:AF:A2:D7:73:A0:FB
    Signature Algorithm: ecdsa-with-SHA256
    Signature Value:
        30:65:02:31:00:df:28:bc:0c:e1:28:2d:90:92:58:33:75:b4:
        08:f7:20:f1:d5:84:37:af:23:db:21:f3:72:93:f3:eb:bf:9c:
        00:3a:e6:95:8f:d9:71:37:ff:07:a1:a6:c1:d8:8e:8a:99:02:
        30:3f:ea:4e:34:76:c5:1e:3c:5d:a6:a3:5a:92:81:b9:15:1d:
        e9:e6:2d:44:e8:bf:21:c8:f9:ea:99:c4:c9:db:30:90:38:a4:
        28:da:14:a2:3a:8b:6a:26:1b:35:58:b1:44
-----BEGIN CERTIFICATE-----
MIICYjCCAeigAwIBAgIBATAKBggqhkjOPQQDAjB6MREwDwYDVQQDDAhJU0VOIEFD
UjEPMA0GA1UECAwGRnJhbmNlMQswCQYDVQQGEwJGUjEpMCcGCSqGSIb3DQEJARYa
aHVnby5taWxsZXRAaXNlbi55bmNyZWEuZnIxDTALBgNVBAoMBElTRU4xDTALBgNV
BAsMBElTRU4wHhcNMjMwNDI0MTI1MzAxWhcNNDMwNDE5MTI1MzAxWjB6MREwDwYD
VQQDDAhJU0VOIEFDUjEPMA0GA1UECAwGRnJhbmNlMQswCQYDVQQGEwJGUjEpMCcG
CSqGSIb3DQEJARYaaHVnby5taWxsZXRAaXNlbi55bmNyZWEuZnIxDTALBgNVBAoM
BElTRU4xDTALBgNVBAsMBElTRU4wdjAQBgcqhkjOPQIBBgUrgQQAIgNiAATThXSR
UmtV4z6m9Jrd0AqqoFa5Ofa00Ai0uCUq/p1IJ7u4+QWK2fWmPsmMF69EbYMkllCt
S9qQXEhkBUltD8PiVhqsLh4XRNOFGv3tYmUnDLSdRx4E7boxkhjvk3mkPF2jQjBA
MBIGA1UdEwEB/wQIMAYBAf8CAQEwCwYDVR0PBAQDAgKkMB0GA1UdDgQWBBRufTU9
ITbH1swmi6URGK+i13Og+zAKBggqhkjOPQQDAgNoADBlAjEA3yi8DOEoLZCSWDN1
tAj3IPHVhDevI9sh83KT8+u/nAA65pWP2XE3/wehpsHYjoqZAjA/6k40dsUePF2m
o1qSgbkVHenmLUTovyHI+eqZxMnbMJA4pCjaFKI6i2omGzVYsUQ=
-----END CERTIFICATE-----
