Certificate:
    Data:
        Version: 3 (0x2)
        Serial Number: 1 (0x1)
        Signature Algorithm: ecdsa-with-SHA256
        Issuer: CN=ISEN ACR, ST=France, C=FR/emailAddress=hugo.millet@isen.yncrea.fr, O=ISEN, OU=ISEN
        Validity
            Not Before: Apr 28 13:03:08 2023 GMT
            Not After : Apr 23 13:03:08 2043 GMT
        Subject: CN=ISEN ACR, ST=France, C=FR/emailAddress=hugo.millet@isen.yncrea.fr, O=ISEN, OU=ISEN
        Subject Public Key Info:
            Public Key Algorithm: id-ecPublicKey
                Public-Key: (384 bit)
                pub:
                    04:4a:e7:af:9c:0e:73:34:a7:6e:90:04:5e:bb:70:
                    98:5e:97:30:64:f7:69:5f:4c:47:a7:69:57:48:b4:
                    c6:25:d9:ff:e4:1d:f7:7e:02:56:00:9d:07:d1:c2:
                    fb:58:06:94:3f:8b:2b:48:23:7b:ef:19:b4:32:42:
                    d6:41:f8:10:4e:37:4e:bf:f4:0c:22:14:9d:b1:e4:
                    99:ba:8c:10:7e:27:0a:df:01:1d:e2:41:36:73:dc:
                    28:42:96:47:80:5f:4b
                ASN1 OID: secp384r1
                NIST CURVE: P-384
        X509v3 extensions:
            X509v3 Basic Constraints: critical
                CA:TRUE, pathlen:1
            X509v3 Key Usage: 
                Digital Signature, Key Encipherment, Certificate Sign
            X509v3 Subject Key Identifier: 
                98:4A:E5:C0:42:88:F1:DE:78:F2:DF:3B:43:38:EB:1C:88:15:B8:33
    Signature Algorithm: ecdsa-with-SHA256
    Signature Value:
        30:66:02:31:00:ac:0d:12:7e:dc:28:98:26:3e:a1:74:55:08:
        2d:2c:4a:21:f4:f2:f4:6b:f7:bb:59:49:e3:de:1a:7c:1c:25:
        41:05:43:bc:49:7e:49:f8:d2:58:61:10:ca:b2:05:ae:a1:02:
        31:00:d4:4f:68:92:ab:43:44:19:01:6e:b1:df:4a:d8:a9:96:
        f8:29:37:5e:80:f8:b7:88:08:5f:96:4e:79:67:3d:ff:14:2d:
        2c:ba:e6:28:ac:78:e7:0c:ba:94:41:3e:1b:21
-----BEGIN CERTIFICATE-----
MIICYzCCAeigAwIBAgIBATAKBggqhkjOPQQDAjB6MREwDwYDVQQDDAhJU0VOIEFD
UjEPMA0GA1UECAwGRnJhbmNlMQswCQYDVQQGEwJGUjEpMCcGCSqGSIb3DQEJARYa
aHVnby5taWxsZXRAaXNlbi55bmNyZWEuZnIxDTALBgNVBAoMBElTRU4xDTALBgNV
BAsMBElTRU4wHhcNMjMwNDI4MTMwMzA4WhcNNDMwNDIzMTMwMzA4WjB6MREwDwYD
VQQDDAhJU0VOIEFDUjEPMA0GA1UECAwGRnJhbmNlMQswCQYDVQQGEwJGUjEpMCcG
CSqGSIb3DQEJARYaaHVnby5taWxsZXRAaXNlbi55bmNyZWEuZnIxDTALBgNVBAoM
BElTRU4xDTALBgNVBAsMBElTRU4wdjAQBgcqhkjOPQIBBgUrgQQAIgNiAARK56+c
DnM0p26QBF67cJhelzBk92lfTEenaVdItMYl2f/kHfd+AlYAnQfRwvtYBpQ/iytI
I3vvGbQyQtZB+BBON06/9AwiFJ2x5Jm6jBB+JwrfAR3iQTZz3ChClkeAX0ujQjBA
MBIGA1UdEwEB/wQIMAYBAf8CAQEwCwYDVR0PBAQDAgKkMB0GA1UdDgQWBBSYSuXA
Qojx3njy3ztDOOsciBW4MzAKBggqhkjOPQQDAgNpADBmAjEArA0SftwomCY+oXRV
CC0sSiH08vRr97tZSePeGnwcJUEFQ7xJfkn40lhhEMqyBa6hAjEA1E9okqtDRBkB
brHfStiplvgpN16A+LeICF+WTnlnPf8ULSy65iiseOcMupRBPhsh
-----END CERTIFICATE-----
