Certificate:
    Data:
        Version: 3 (0x2)
        Serial Number: 1 (0x1)
        Signature Algorithm: ecdsa-with-SHA256
        Issuer: CN=ISEN ACR, ST=France, C=FR/emailAddress=hugo.millet@isen.yncrea.fr, O=ISEN, OU=ISEN
        Validity
            Not Before: Apr 27 17:57:29 2023 GMT
            Not After : Apr 22 17:57:29 2043 GMT
        Subject: CN=ISEN ACR, ST=France, C=FR/emailAddress=hugo.millet@isen.yncrea.fr, O=ISEN, OU=ISEN
        Subject Public Key Info:
            Public Key Algorithm: id-ecPublicKey
                Public-Key: (384 bit)
                pub:
                    04:fd:ee:31:13:0b:bf:43:53:26:6e:30:37:e6:be:
                    70:53:49:33:fa:bd:8b:e1:b6:69:dc:2c:0e:a0:01:
                    17:06:36:14:1a:ed:8f:95:09:3e:e2:8f:c1:6d:b1:
                    16:32:c6:10:38:cd:97:cf:89:5b:73:5f:c5:8c:00:
                    0e:9c:11:5a:a6:af:f0:3e:b8:bc:78:a6:7c:57:bd:
                    85:88:1f:43:f2:a5:9c:58:a5:a0:51:89:d3:69:33:
                    5b:8e:83:ad:41:1f:59
                ASN1 OID: secp384r1
                NIST CURVE: P-384
        X509v3 extensions:
            X509v3 Basic Constraints: critical
                CA:TRUE, pathlen:1
            X509v3 Key Usage: 
                Digital Signature, Key Encipherment, Certificate Sign
            X509v3 Subject Key Identifier: 
                1B:6F:8F:A1:21:2F:EE:E1:14:C2:57:65:49:9A:EC:AC:E8:93:3D:F0
    Signature Algorithm: ecdsa-with-SHA256
    Signature Value:
        30:66:02:31:00:ce:24:3e:6c:c3:e8:ea:e7:e7:c9:e3:ee:59:
        64:d5:58:a9:45:f8:00:b7:23:39:9c:93:ca:4f:43:b3:7a:0c:
        bd:08:a8:c6:44:40:94:e0:06:88:78:a3:b7:13:4c:e5:b7:02:
        31:00:bc:58:cc:48:58:66:b8:c9:4a:1f:53:72:06:c6:4f:fc:
        bd:49:75:32:15:46:02:cd:3f:fd:ed:dc:84:6d:ca:d3:d4:df:
        ff:b3:78:17:4c:d4:1f:eb:f1:2e:8f:61:6d:af
-----BEGIN CERTIFICATE-----
MIICYzCCAeigAwIBAgIBATAKBggqhkjOPQQDAjB6MREwDwYDVQQDDAhJU0VOIEFD
UjEPMA0GA1UECAwGRnJhbmNlMQswCQYDVQQGEwJGUjEpMCcGCSqGSIb3DQEJARYa
aHVnby5taWxsZXRAaXNlbi55bmNyZWEuZnIxDTALBgNVBAoMBElTRU4xDTALBgNV
BAsMBElTRU4wHhcNMjMwNDI3MTc1NzI5WhcNNDMwNDIyMTc1NzI5WjB6MREwDwYD
VQQDDAhJU0VOIEFDUjEPMA0GA1UECAwGRnJhbmNlMQswCQYDVQQGEwJGUjEpMCcG
CSqGSIb3DQEJARYaaHVnby5taWxsZXRAaXNlbi55bmNyZWEuZnIxDTALBgNVBAoM
BElTRU4xDTALBgNVBAsMBElTRU4wdjAQBgcqhkjOPQIBBgUrgQQAIgNiAAT97jET
C79DUyZuMDfmvnBTSTP6vYvhtmncLA6gARcGNhQa7Y+VCT7ij8FtsRYyxhA4zZfP
iVtzX8WMAA6cEVqmr/A+uLx4pnxXvYWIH0PypZxYpaBRidNpM1uOg61BH1mjQjBA
MBIGA1UdEwEB/wQIMAYBAf8CAQEwCwYDVR0PBAQDAgKkMB0GA1UdDgQWBBQbb4+h
IS/u4RTCV2VJmuys6JM98DAKBggqhkjOPQQDAgNpADBmAjEAziQ+bMPo6ufnyePu
WWTVWKlF+AC3Izmck8pPQ7N6DL0IqMZEQJTgBoh4o7cTTOW3AjEAvFjMSFhmuMlK
H1NyBsZP/L1JdTIVRgLNP/3t3IRtytPU3/+zeBdM1B/r8S6PYW2v
-----END CERTIFICATE-----
