Certificate:
    Data:
        Version: 3 (0x2)
        Serial Number: 1 (0x1)
        Signature Algorithm: ecdsa-with-SHA256
        Issuer: CN=ISEN ACR, ST=France, C=FR/emailAddress=hugo.millet@isen.yncrea.fr, O=ISEN, OU=ISEN
        Validity
            Not Before: Apr 30 15:47:39 2023 GMT
            Not After : Apr 25 15:47:39 2043 GMT
        Subject: CN=ISEN ACR, ST=France, C=FR/emailAddress=hugo.millet@isen.yncrea.fr, O=ISEN, OU=ISEN
        Subject Public Key Info:
            Public Key Algorithm: id-ecPublicKey
                Public-Key: (256 bit)
                pub:
                    04:71:ee:ba:24:32:c5:c1:87:3b:76:c2:ed:68:54:
                    e8:9a:cd:46:ae:ef:44:2e:78:a6:07:68:d6:f2:92:
                    d3:8a:e2:b7:1f:3f:a1:ac:2c:4b:9b:2a:cc:7d:15:
                    3c:20:6a:8e:48:37:e2:15:b0:25:90:b9:13:6e:5a:
                    71:b1:65:98:09
                ASN1 OID: prime256v1
                NIST CURVE: P-256
        X509v3 extensions:
            X509v3 Basic Constraints: critical
                CA:TRUE, pathlen:1
            X509v3 Key Usage: 
                Digital Signature, Key Encipherment, Certificate Sign
            X509v3 Subject Key Identifier: 
                E2:FD:28:D3:2F:4E:F2:E0:A2:E0:DC:57:47:1F:61:DB:FD:C8:54:31
    Signature Algorithm: ecdsa-with-SHA256
    Signature Value:
        30:44:02:20:51:2c:50:73:ef:c3:9c:e1:6f:c9:ad:4d:48:06:
        c8:c1:21:23:39:d8:62:0b:b8:12:d7:7b:08:74:8b:00:7a:e8:
        02:20:1c:77:24:00:6c:66:86:a4:3b:c4:27:59:33:d0:22:96:
        d2:35:a5:57:56:9f:cc:67:32:58:e6:7f:e3:98:e0:62
-----BEGIN CERTIFICATE-----
MIICJDCCAcugAwIBAgIBATAKBggqhkjOPQQDAjB6MREwDwYDVQQDDAhJU0VOIEFD
UjEPMA0GA1UECAwGRnJhbmNlMQswCQYDVQQGEwJGUjEpMCcGCSqGSIb3DQEJARYa
aHVnby5taWxsZXRAaXNlbi55bmNyZWEuZnIxDTALBgNVBAoMBElTRU4xDTALBgNV
BAsMBElTRU4wHhcNMjMwNDMwMTU0NzM5WhcNNDMwNDI1MTU0NzM5WjB6MREwDwYD
VQQDDAhJU0VOIEFDUjEPMA0GA1UECAwGRnJhbmNlMQswCQYDVQQGEwJGUjEpMCcG
CSqGSIb3DQEJARYaaHVnby5taWxsZXRAaXNlbi55bmNyZWEuZnIxDTALBgNVBAoM
BElTRU4xDTALBgNVBAsMBElTRU4wWTATBgcqhkjOPQIBBggqhkjOPQMBBwNCAARx
7rokMsXBhzt2wu1oVOiazUau70QueKYHaNbyktOK4rcfP6GsLEubKsx9FTwgao5I
N+IVsCWQuRNuWnGxZZgJo0IwQDASBgNVHRMBAf8ECDAGAQH/AgEBMAsGA1UdDwQE
AwICpDAdBgNVHQ4EFgQU4v0o0y9O8uCi4NxXRx9h2/3IVDEwCgYIKoZIzj0EAwID
RwAwRAIgUSxQc+/DnOFvya1NSAbIwSEjOdhiC7gS13sIdIsAeugCIBx3JABsZoak
O8QnWTPQIpbSNaVXVp/MZzJY5n/jmOBi
-----END CERTIFICATE-----
