Certificate:
    Data:
        Version: 3 (0x2)
        Serial Number: 1 (0x1)
        Signature Algorithm: ecdsa-with-SHA256
        Issuer: CN=ISEN ACR, ST=France, C=FR/emailAddress=hugo.millet@isen.yncrea.fr, O=ISEN, OU=ISEN
        Validity
            Not Before: Apr 24 12:39:21 2023 GMT
            Not After : Apr 19 12:39:21 2043 GMT
        Subject: CN=ISEN ACR, ST=France, C=FR/emailAddress=hugo.millet@isen.yncrea.fr, O=ISEN, OU=ISEN
        Subject Public Key Info:
            Public Key Algorithm: id-ecPublicKey
                Public-Key: (384 bit)
                pub:
                    04:a6:91:24:e9:8a:5a:d2:ac:76:b8:72:58:97:6b:
                    b4:42:b7:e9:f2:ae:a7:c5:08:f6:61:d1:39:46:39:
                    2c:6f:0e:21:2a:26:25:de:24:40:27:8b:97:79:94:
                    d9:74:8f:b7:b0:db:4d:3a:b0:dc:a6:d4:f0:62:9f:
                    1c:5c:44:91:8e:b3:e7:5a:29:4c:6d:fb:fc:ad:d6:
                    04:ef:f5:18:28:76:b0:87:9a:14:26:64:be:40:a0:
                    5f:60:5b:3c:2b:1c:54
                ASN1 OID: secp384r1
                NIST CURVE: P-384
        X509v3 extensions:
            X509v3 Basic Constraints: critical
                CA:TRUE, pathlen:1
            X509v3 Key Usage: 
                Digital Signature, Key Encipherment, Certificate Sign
            X509v3 Subject Key Identifier: 
                E9:CF:92:EF:D5:1E:49:12:8D:9D:70:3C:E6:4B:BB:10:15:B7:F0:21
    Signature Algorithm: ecdsa-with-SHA256
    Signature Value:
        30:64:02:30:39:03:2a:de:af:ba:f6:72:cd:20:01:9a:09:95:
        0d:b3:98:33:94:ad:e8:9b:b1:65:4c:ed:1d:d2:12:08:77:99:
        ad:23:fc:b2:36:a5:46:05:8f:74:3a:c4:a9:a2:73:77:02:30:
        2a:0e:04:1e:24:32:dc:05:24:29:33:01:bf:c7:ce:06:ee:f5:
        f4:02:3d:8a:ce:5c:af:7b:df:4a:7a:f9:c2:84:f4:9b:58:04:
        20:67:5e:e3:17:22:c7:92:4b:e5:d6:35
-----BEGIN CERTIFICATE-----
MIICYTCCAeigAwIBAgIBATAKBggqhkjOPQQDAjB6MREwDwYDVQQDDAhJU0VOIEFD
UjEPMA0GA1UECAwGRnJhbmNlMQswCQYDVQQGEwJGUjEpMCcGCSqGSIb3DQEJARYa
aHVnby5taWxsZXRAaXNlbi55bmNyZWEuZnIxDTALBgNVBAoMBElTRU4xDTALBgNV
BAsMBElTRU4wHhcNMjMwNDI0MTIzOTIxWhcNNDMwNDE5MTIzOTIxWjB6MREwDwYD
VQQDDAhJU0VOIEFDUjEPMA0GA1UECAwGRnJhbmNlMQswCQYDVQQGEwJGUjEpMCcG
CSqGSIb3DQEJARYaaHVnby5taWxsZXRAaXNlbi55bmNyZWEuZnIxDTALBgNVBAoM
BElTRU4xDTALBgNVBAsMBElTRU4wdjAQBgcqhkjOPQIBBgUrgQQAIgNiAASmkSTp
ilrSrHa4cliXa7RCt+nyrqfFCPZh0TlGOSxvDiEqJiXeJEAni5d5lNl0j7ew2006
sNym1PBinxxcRJGOs+daKUxt+/yt1gTv9RgodrCHmhQmZL5AoF9gWzwrHFSjQjBA
MBIGA1UdEwEB/wQIMAYBAf8CAQEwCwYDVR0PBAQDAgKkMB0GA1UdDgQWBBTpz5Lv
1R5JEo2dcDzmS7sQFbfwITAKBggqhkjOPQQDAgNnADBkAjA5Ayrer7r2cs0gAZoJ
lQ2zmDOUreibsWVM7R3SEgh3ma0j/LI2pUYFj3Q6xKmic3cCMCoOBB4kMtwFJCkz
Ab/Hzgbu9fQCPYrOXK9730p6+cKE9JtYBCBnXuMXIseSS+XWNQ==
-----END CERTIFICATE-----
