Certificate:
    Data:
        Version: 3 (0x2)
        Serial Number: 1 (0x1)
        Signature Algorithm: ecdsa-with-SHA256
        Issuer: CN=ISEN ACR, ST=France, C=FR/emailAddress=hugo.millet@isen.yncrea.fr, O=ISEN, OU=ISEN
        Validity
            Not Before: Apr 28 13:36:01 2023 GMT
            Not After : Apr 23 13:36:01 2043 GMT
        Subject: CN=ISEN ACR, ST=France, C=FR/emailAddress=hugo.millet@isen.yncrea.fr, O=ISEN, OU=ISEN
        Subject Public Key Info:
            Public Key Algorithm: id-ecPublicKey
                Public-Key: (384 bit)
                pub:
                    04:f9:18:80:1c:b0:97:22:20:57:0b:53:b9:40:a9:
                    1c:7a:ae:65:bd:da:f6:2a:e6:b9:30:42:e3:c3:ac:
                    62:bd:07:b3:20:8c:c1:e3:4a:d0:b4:a4:3c:5e:50:
                    e5:3b:9d:2c:b0:93:9e:ff:1e:b7:bc:67:de:0d:b7:
                    c1:c5:53:2f:72:de:90:ea:e5:a4:e8:2b:75:66:cc:
                    0d:cb:66:c7:39:92:58:5c:c2:6a:fc:84:70:3e:6d:
                    05:b4:db:2d:58:03:8b
                ASN1 OID: secp384r1
                NIST CURVE: P-384
        X509v3 extensions:
            X509v3 Basic Constraints: critical
                CA:TRUE, pathlen:1
            X509v3 Key Usage: 
                Digital Signature, Key Encipherment, Certificate Sign
            X509v3 Subject Key Identifier: 
                16:9C:58:6C:51:06:09:2F:07:80:F7:F2:EB:87:11:00:F0:18:7B:15
    Signature Algorithm: ecdsa-with-SHA256
    Signature Value:
        30:66:02:31:00:96:85:3e:8b:1b:31:c4:ca:c3:96:97:7d:a6:
        37:63:6f:07:c8:9f:88:46:39:93:4e:5e:e7:89:1a:99:93:0b:
        c9:6c:d5:6a:85:54:a4:f4:b4:81:68:c1:0f:d4:56:3c:bc:02:
        31:00:c9:2e:d0:03:ad:6e:32:95:01:10:6c:7f:40:e0:22:d5:
        5f:8b:1f:d5:f6:fc:d0:44:5a:c8:a4:02:cf:07:07:01:13:6a:
        e7:28:22:48:e2:7a:de:90:df:a9:ee:06:3e:cc
-----BEGIN CERTIFICATE-----
MIICYzCCAeigAwIBAgIBATAKBggqhkjOPQQDAjB6MREwDwYDVQQDDAhJU0VOIEFD
UjEPMA0GA1UECAwGRnJhbmNlMQswCQYDVQQGEwJGUjEpMCcGCSqGSIb3DQEJARYa
aHVnby5taWxsZXRAaXNlbi55bmNyZWEuZnIxDTALBgNVBAoMBElTRU4xDTALBgNV
BAsMBElTRU4wHhcNMjMwNDI4MTMzNjAxWhcNNDMwNDIzMTMzNjAxWjB6MREwDwYD
VQQDDAhJU0VOIEFDUjEPMA0GA1UECAwGRnJhbmNlMQswCQYDVQQGEwJGUjEpMCcG
CSqGSIb3DQEJARYaaHVnby5taWxsZXRAaXNlbi55bmNyZWEuZnIxDTALBgNVBAoM
BElTRU4xDTALBgNVBAsMBElTRU4wdjAQBgcqhkjOPQIBBgUrgQQAIgNiAAT5GIAc
sJciIFcLU7lAqRx6rmW92vYq5rkwQuPDrGK9B7MgjMHjStC0pDxeUOU7nSywk57/
Hre8Z94Nt8HFUy9y3pDq5aToK3VmzA3LZsc5klhcwmr8hHA+bQW02y1YA4ujQjBA
MBIGA1UdEwEB/wQIMAYBAf8CAQEwCwYDVR0PBAQDAgKkMB0GA1UdDgQWBBQWnFhs
UQYJLweA9/LrhxEA8Bh7FTAKBggqhkjOPQQDAgNpADBmAjEAloU+ixsxxMrDlpd9
pjdjbwfIn4hGOZNOXueJGpmTC8ls1WqFVKT0tIFowQ/UVjy8AjEAyS7QA61uMpUB
EGx/QOAi1V+LH9X2/NBEWsikAs8HBwETaucoIkjiet6Q36nuBj7M
-----END CERTIFICATE-----
