Certificate:
    Data:
        Version: 3 (0x2)
        Serial Number: 1 (0x1)
        Signature Algorithm: ecdsa-with-SHA256
        Issuer: CN=ISEN ACR, ST=France, C=FR/emailAddress=hugo.millet@isen.yncrea.fr, O=ISEN, OU=ISEN
        Validity
            Not Before: Apr 26 15:34:25 2023 GMT
            Not After : Apr 21 15:34:25 2043 GMT
        Subject: CN=ISEN ACR, ST=France, C=FR/emailAddress=hugo.millet@isen.yncrea.fr, O=ISEN, OU=ISEN
        Subject Public Key Info:
            Public Key Algorithm: id-ecPublicKey
                Public-Key: (384 bit)
                pub:
                    04:3b:d7:cc:a1:56:ca:e3:f6:37:6a:0a:da:a9:26:
                    3d:b3:35:21:11:b9:a3:9c:97:ec:34:79:27:2b:53:
                    73:87:41:d0:9f:29:74:90:7f:52:ad:a9:26:7c:af:
                    32:c0:85:ff:5e:c2:dd:36:fd:05:d3:80:10:8f:43:
                    60:bc:89:01:36:b5:47:d1:f4:3f:31:44:a6:f7:95:
                    49:f8:09:a5:97:50:2c:8c:c7:c7:81:06:9c:db:8d:
                    57:56:24:c5:b9:0b:c7
                ASN1 OID: secp384r1
                NIST CURVE: P-384
        X509v3 extensions:
            X509v3 Basic Constraints: critical
                CA:TRUE, pathlen:1
            X509v3 Key Usage: 
                Digital Signature, Key Encipherment, Certificate Sign
            X509v3 Subject Key Identifier: 
                04:78:BC:71:4D:1A:72:B2:04:2C:7F:B2:D0:6F:05:5F:E5:95:E2:79
    Signature Algorithm: ecdsa-with-SHA256
    Signature Value:
        30:65:02:30:45:54:93:10:a2:4f:6d:98:9b:b5:c8:8f:2f:65:
        ff:5d:8d:20:d4:0f:b8:f0:81:f1:a4:89:a3:63:1b:79:35:eb:
        1a:05:39:a2:89:26:ab:e7:f5:07:d1:38:78:f0:e5:bf:02:31:
        00:a1:b7:aa:79:03:2f:07:f9:51:a5:ff:e3:ab:8b:59:d1:45:
        b1:27:38:e3:fe:2a:05:b2:94:4e:d6:4d:33:d8:4c:ab:70:94:
        1c:1b:bd:1a:be:32:4a:5d:c0:46:f8:95:8e
-----BEGIN CERTIFICATE-----
MIICYjCCAeigAwIBAgIBATAKBggqhkjOPQQDAjB6MREwDwYDVQQDDAhJU0VOIEFD
UjEPMA0GA1UECAwGRnJhbmNlMQswCQYDVQQGEwJGUjEpMCcGCSqGSIb3DQEJARYa
aHVnby5taWxsZXRAaXNlbi55bmNyZWEuZnIxDTALBgNVBAoMBElTRU4xDTALBgNV
BAsMBElTRU4wHhcNMjMwNDI2MTUzNDI1WhcNNDMwNDIxMTUzNDI1WjB6MREwDwYD
VQQDDAhJU0VOIEFDUjEPMA0GA1UECAwGRnJhbmNlMQswCQYDVQQGEwJGUjEpMCcG
CSqGSIb3DQEJARYaaHVnby5taWxsZXRAaXNlbi55bmNyZWEuZnIxDTALBgNVBAoM
BElTRU4xDTALBgNVBAsMBElTRU4wdjAQBgcqhkjOPQIBBgUrgQQAIgNiAAQ718yh
Vsrj9jdqCtqpJj2zNSERuaOcl+w0eScrU3OHQdCfKXSQf1KtqSZ8rzLAhf9ewt02
/QXTgBCPQ2C8iQE2tUfR9D8xRKb3lUn4CaWXUCyMx8eBBpzbjVdWJMW5C8ejQjBA
MBIGA1UdEwEB/wQIMAYBAf8CAQEwCwYDVR0PBAQDAgKkMB0GA1UdDgQWBBQEeLxx
TRpysgQsf7LQbwVf5ZXieTAKBggqhkjOPQQDAgNoADBlAjBFVJMQok9tmJu1yI8v
Zf9djSDUD7jwgfGkiaNjG3k16xoFOaKJJqvn9QfROHjw5b8CMQCht6p5Ay8H+VGl
/+Ori1nRRbEnOOP+KgWylE7WTTPYTKtwlBwbvRq+MkpdwEb4lY4=
-----END CERTIFICATE-----
