Certificate:
    Data:
        Version: 3 (0x2)
        Serial Number: 1 (0x1)
        Signature Algorithm: ecdsa-with-SHA256
        Issuer: CN=ISEN ACR, ST=France, C=FR/emailAddress=hugo.millet@isen.yncrea.fr, O=ISEN, OU=ISEN
        Validity
            Not Before: Apr 20 13:59:38 2023 GMT
            Not After : Apr 15 13:59:38 2043 GMT
        Subject: CN=ISEN ACR, ST=France, C=FR/emailAddress=hugo.millet@isen.yncrea.fr, O=ISEN, OU=ISEN
        Subject Public Key Info:
            Public Key Algorithm: id-ecPublicKey
                Public-Key: (384 bit)
                pub:
                    04:3c:af:76:98:bf:f0:1c:af:3b:57:8e:26:49:1a:
                    02:64:56:65:b5:7b:45:41:04:b8:70:8b:c6:f6:17:
                    7c:b6:fa:6d:f8:96:90:c0:64:f7:77:b7:57:35:84:
                    2d:37:23:77:45:71:43:43:55:99:0d:f9:53:4c:16:
                    c1:46:5a:10:dd:05:93:d2:84:2a:c3:52:30:c8:0d:
                    0b:08:67:9d:3e:07:e9:c0:41:22:b7:c3:e3:bb:14:
                    28:d2:37:60:f3:d9:11
                ASN1 OID: secp384r1
                NIST CURVE: P-384
        X509v3 extensions:
            X509v3 Basic Constraints: critical
                CA:TRUE
            X509v3 Key Usage: 
                Digital Signature, Key Encipherment
            X509v3 Subject Key Identifier: 
                F9:E4:B7:62:49:98:98:9E:FD:2D:11:7D:93:0A:D6:60:EF:FA:B7:84
    Signature Algorithm: ecdsa-with-SHA256
    Signature Value:
        30:66:02:31:00:82:e8:5f:fe:8e:b3:ad:24:9a:9a:82:03:c9:
        e2:dd:64:a1:06:35:30:3c:f0:8a:82:54:2f:a8:bd:4a:a5:11:
        87:28:c7:c0:5e:9b:04:b1:b1:41:35:28:b5:9e:c7:75:b1:02:
        31:00:82:04:53:6c:2a:78:ba:c9:55:87:0c:65:6a:dd:c2:41:
        0c:17:10:46:22:ce:40:c6:b9:14:cb:e1:07:66:75:f1:75:db:
        44:3a:b7:8a:96:c6:af:5e:ab:4c:f5:26:d7:37
-----BEGIN CERTIFICATE-----
MIICYDCCAeWgAwIBAgIBATAKBggqhkjOPQQDAjB6MREwDwYDVQQDDAhJU0VOIEFD
UjEPMA0GA1UECAwGRnJhbmNlMQswCQYDVQQGEwJGUjEpMCcGCSqGSIb3DQEJARYa
aHVnby5taWxsZXRAaXNlbi55bmNyZWEuZnIxDTALBgNVBAoMBElTRU4xDTALBgNV
BAsMBElTRU4wHhcNMjMwNDIwMTM1OTM4WhcNNDMwNDE1MTM1OTM4WjB6MREwDwYD
VQQDDAhJU0VOIEFDUjEPMA0GA1UECAwGRnJhbmNlMQswCQYDVQQGEwJGUjEpMCcG
CSqGSIb3DQEJARYaaHVnby5taWxsZXRAaXNlbi55bmNyZWEuZnIxDTALBgNVBAoM
BElTRU4xDTALBgNVBAsMBElTRU4wdjAQBgcqhkjOPQIBBgUrgQQAIgNiAAQ8r3aY
v/AcrztXjiZJGgJkVmW1e0VBBLhwi8b2F3y2+m34lpDAZPd3t1c1hC03I3dFcUND
VZkN+VNMFsFGWhDdBZPShCrDUjDIDQsIZ50+B+nAQSK3w+O7FCjSN2Dz2RGjPzA9
MA8GA1UdEwEB/wQFMAMBAf8wCwYDVR0PBAQDAgWgMB0GA1UdDgQWBBT55LdiSZiY
nv0tEX2TCtZg7/q3hDAKBggqhkjOPQQDAgNpADBmAjEAguhf/o6zrSSamoIDyeLd
ZKEGNTA88IqCVC+ovUqlEYcox8BemwSxsUE1KLWex3WxAjEAggRTbCp4uslVhwxl
at3CQQwXEEYizkDGuRTL4QdmdfF120Q6t4qWxq9eq0z1Jtc3
-----END CERTIFICATE-----
