Certificate:
    Data:
        Version: 3 (0x2)
        Serial Number: 1 (0x1)
        Signature Algorithm: ecdsa-with-SHA256
        Issuer: CN=ISEN ACR, ST=France, C=FR/emailAddress=hugo.millet@isen.yncrea.fr, O=ISEN, OU=ISEN
        Validity
            Not Before: Apr 30 12:05:17 2023 GMT
            Not After : Apr 25 12:05:17 2043 GMT
        Subject: CN=ISEN ACR, ST=France, C=FR/emailAddress=hugo.millet@isen.yncrea.fr, O=ISEN, OU=ISEN
        Subject Public Key Info:
            Public Key Algorithm: id-ecPublicKey
                Public-Key: (384 bit)
                pub:
                    04:0d:5e:21:25:b0:67:e2:55:36:0a:a1:8c:df:76:
                    c5:6c:81:3e:5a:57:d6:04:29:7a:ff:1d:e6:d3:b4:
                    b6:ac:84:c5:0f:23:24:e0:70:8e:0d:9d:1b:46:1c:
                    38:67:06:0e:1c:69:aa:28:c8:a3:88:63:95:17:90:
                    10:a5:c6:d2:06:dd:8b:01:44:e2:8f:0c:17:4b:ad:
                    b8:ff:4a:88:c4:2b:ef:37:45:2b:a3:2c:a9:e1:1d:
                    f1:f3:f2:0a:1f:e3:19
                ASN1 OID: secp384r1
                NIST CURVE: P-384
        X509v3 extensions:
            X509v3 Basic Constraints: critical
                CA:TRUE, pathlen:1
            X509v3 Key Usage: 
                Digital Signature, Key Encipherment, Certificate Sign
            X509v3 Subject Key Identifier: 
                41:E1:24:6F:8F:18:D4:4C:D4:A5:8E:B8:04:75:CD:27:D6:B0:1F:6D
    Signature Algorithm: ecdsa-with-SHA256
    Signature Value:
        30:66:02:31:00:cc:83:f1:56:16:d1:e3:68:1d:c9:cf:73:af:
        0f:96:03:dd:0f:8a:6b:40:20:b6:e5:d0:58:2f:41:4a:85:93:
        0e:3e:62:0f:7f:65:8d:69:06:a5:81:8f:06:ba:ec:ce:c2:02:
        31:00:ec:be:5a:4a:65:35:48:8b:78:f9:a5:10:63:14:dc:c1:
        2f:97:76:19:a2:a7:80:68:c5:24:93:11:3d:d3:d6:86:c3:b8:
        19:11:a3:98:0c:30:31:e3:d7:96:11:13:d8:d7
-----BEGIN CERTIFICATE-----
MIICYzCCAeigAwIBAgIBATAKBggqhkjOPQQDAjB6MREwDwYDVQQDDAhJU0VOIEFD
UjEPMA0GA1UECAwGRnJhbmNlMQswCQYDVQQGEwJGUjEpMCcGCSqGSIb3DQEJARYa
aHVnby5taWxsZXRAaXNlbi55bmNyZWEuZnIxDTALBgNVBAoMBElTRU4xDTALBgNV
BAsMBElTRU4wHhcNMjMwNDMwMTIwNTE3WhcNNDMwNDI1MTIwNTE3WjB6MREwDwYD
VQQDDAhJU0VOIEFDUjEPMA0GA1UECAwGRnJhbmNlMQswCQYDVQQGEwJGUjEpMCcG
CSqGSIb3DQEJARYaaHVnby5taWxsZXRAaXNlbi55bmNyZWEuZnIxDTALBgNVBAoM
BElTRU4xDTALBgNVBAsMBElTRU4wdjAQBgcqhkjOPQIBBgUrgQQAIgNiAAQNXiEl
sGfiVTYKoYzfdsVsgT5aV9YEKXr/HebTtLashMUPIyTgcI4NnRtGHDhnBg4caaoo
yKOIY5UXkBClxtIG3YsBROKPDBdLrbj/SojEK+83RSujLKnhHfHz8gof4xmjQjBA
MBIGA1UdEwEB/wQIMAYBAf8CAQEwCwYDVR0PBAQDAgKkMB0GA1UdDgQWBBRB4SRv
jxjUTNSljrgEdc0n1rAfbTAKBggqhkjOPQQDAgNpADBmAjEAzIPxVhbR42gdyc9z
rw+WA90PimtAILbl0FgvQUqFkw4+Yg9/ZY1pBqWBjwa67M7CAjEA7L5aSmU1SIt4
+aUQYxTcwS+Xdhmip4BoxSSTET3T1obDuBkRo5gMMDHj15YRE9jX
-----END CERTIFICATE-----
