Certificate:
    Data:
        Version: 3 (0x2)
        Serial Number: 1 (0x1)
        Signature Algorithm: ecdsa-with-SHA256
        Issuer: CN=ISEN ACR, ST=France, C=FR/emailAddress=hugo.millet@isen.yncrea.fr, O=ISEN, OU=ISEN
        Validity
            Not Before: Apr 24 12:53:01 2023 GMT
            Not After : Apr 23 12:53:01 2024 GMT
        Subject: CN=ISEN ACI, ST=France, C=FR/emailAddress=hugo.millet@isen.yncrea.fr, O=ISEN, OU=ISEN
        Subject Public Key Info:
            Public Key Algorithm: id-ecPublicKey
                Public-Key: (384 bit)
                pub:
                    04:99:d7:32:a3:b9:5f:8c:6f:58:6e:fd:23:85:24:
                    32:c5:4f:4d:ee:57:1a:28:fe:08:8b:c1:cb:b3:d0:
                    ed:f6:e7:3f:0f:6f:05:d8:ec:c8:86:aa:cb:5f:8e:
                    7f:7e:a1:f7:bc:f8:6f:71:03:74:66:de:52:41:7d:
                    a0:09:ef:83:da:13:20:ae:77:39:4c:d1:42:b2:77:
                    51:98:cb:e1:b7:b4:ca:2e:b6:79:a6:ef:e1:0e:91:
                    40:f8:f5:31:6a:5e:3c
                ASN1 OID: secp384r1
                NIST CURVE: P-384
        X509v3 extensions:
            X509v3 Basic Constraints: critical
                CA:TRUE, pathlen:0
            X509v3 Key Usage: 
                Digital Signature, Key Encipherment, Certificate Sign
            X509v3 Subject Key Identifier: 
                86:3F:F3:32:45:31:9D:A9:C1:1B:B0:8D:A4:39:16:12:68:F1:3E:3F
            X509v3 Authority Key Identifier: 
                6E:7D:35:3D:21:36:C7:D6:CC:26:8B:A5:11:18:AF:A2:D7:73:A0:FB
    Signature Algorithm: ecdsa-with-SHA256
    Signature Value:
        30:65:02:31:00:80:4b:3c:ff:6b:98:d1:a9:03:c8:38:f5:44:
        4f:12:1b:5e:fc:ac:95:f1:19:13:55:f3:82:02:cc:dd:46:53:
        d1:37:e6:5e:e7:93:bd:3c:cf:23:57:0e:83:cf:42:86:c5:02:
        30:4f:6d:e1:24:55:b4:d1:cb:b3:92:45:38:64:2b:33:30:87:
        f2:c9:af:2b:92:6a:e7:9b:a1:5e:f5:3a:90:de:c2:31:01:78:
        84:0e:5f:8f:c5:7b:e8:b6:a1:07:4d:25:66
-----BEGIN CERTIFICATE-----
MIICgzCCAgmgAwIBAgIBATAKBggqhkjOPQQDAjB6MREwDwYDVQQDDAhJU0VOIEFD
UjEPMA0GA1UECAwGRnJhbmNlMQswCQYDVQQGEwJGUjEpMCcGCSqGSIb3DQEJARYa
aHVnby5taWxsZXRAaXNlbi55bmNyZWEuZnIxDTALBgNVBAoMBElTRU4xDTALBgNV
BAsMBElTRU4wHhcNMjMwNDI0MTI1MzAxWhcNMjQwNDIzMTI1MzAxWjB6MREwDwYD
VQQDDAhJU0VOIEFDSTEPMA0GA1UECAwGRnJhbmNlMQswCQYDVQQGEwJGUjEpMCcG
CSqGSIb3DQEJARYaaHVnby5taWxsZXRAaXNlbi55bmNyZWEuZnIxDTALBgNVBAoM
BElTRU4xDTALBgNVBAsMBElTRU4wdjAQBgcqhkjOPQIBBgUrgQQAIgNiAASZ1zKj
uV+Mb1hu/SOFJDLFT03uVxoo/giLwcuz0O325z8PbwXY7MiGqstfjn9+ofe8+G9x
A3Rm3lJBfaAJ74PaEyCudzlM0UKyd1GYy+G3tMoutnmm7+EOkUD49TFqXjyjYzBh
MBIGA1UdEwEB/wQIMAYBAf8CAQAwCwYDVR0PBAQDAgKkMB0GA1UdDgQWBBSGP/My
RTGdqcEbsI2kORYSaPE+PzAfBgNVHSMEGDAWgBRufTU9ITbH1swmi6URGK+i13Og
+zAKBggqhkjOPQQDAgNoADBlAjEAgEs8/2uY0akDyDj1RE8SG178rJXxGRNV84IC
zN1GU9E35l7nk708zyNXDoPPQobFAjBPbeEkVbTRy7OSRThkKzMwh/LJryuSaueb
oV71OpDewjEBeIQOX4/Fe+i2oQdNJWY=
-----END CERTIFICATE-----
