Certificate:
    Data:
        Version: 3 (0x2)
        Serial Number: 1 (0x1)
        Signature Algorithm: ecdsa-with-SHA256
        Issuer: CN=ISEN ACR, ST=France, C=FR/emailAddress=hugo.millet@isen.yncrea.fr, O=ISEN, OU=ISEN
        Validity
            Not Before: Apr 24 12:39:21 2023 GMT
            Not After : Apr 23 12:39:21 2024 GMT
        Subject: CN=ISEN ACI, ST=France, C=FR/emailAddress=hugo.millet@isen.yncrea.fr, O=ISEN, OU=ISEN
        Subject Public Key Info:
            Public Key Algorithm: id-ecPublicKey
                Public-Key: (384 bit)
                pub:
                    04:7a:74:6f:0c:5f:ce:a0:29:89:51:ef:1d:fe:44:
                    fa:ce:0e:54:b8:79:b9:c1:2d:5a:8c:45:54:d8:15:
                    0c:97:82:64:ee:70:76:c9:8b:72:d3:96:55:87:b1:
                    d7:b8:ec:a7:21:4f:9a:ed:4f:5a:73:7b:2c:5a:50:
                    2c:c7:be:f8:3a:cc:f7:42:09:aa:e8:8e:0b:e6:dc:
                    07:e0:df:e0:92:31:a1:cc:30:9c:3a:9d:69:05:41:
                    43:d5:a5:0c:ef:d7:04
                ASN1 OID: secp384r1
                NIST CURVE: P-384
        X509v3 extensions:
            X509v3 Basic Constraints: critical
                CA:TRUE, pathlen:0
            X509v3 Key Usage: 
                Digital Signature, Key Encipherment, Certificate Sign
            X509v3 Subject Key Identifier: 
                56:17:74:01:9E:ED:99:4D:1E:B7:53:CC:42:75:98:8C:1B:E7:5C:64
            X509v3 Authority Key Identifier: 
                E9:CF:92:EF:D5:1E:49:12:8D:9D:70:3C:E6:4B:BB:10:15:B7:F0:21
    Signature Algorithm: ecdsa-with-SHA256
    Signature Value:
        30:66:02:31:00:f3:c1:ba:ce:97:48:29:c7:c7:43:33:a4:ac:
        6c:9b:b4:36:17:f4:84:e0:dc:69:70:a3:da:b9:e0:c5:d5:8e:
        06:0d:93:4e:bb:f3:b5:2f:bf:ab:ca:ed:e1:55:30:02:54:02:
        31:00:8f:f6:5d:9f:6c:e2:de:86:8e:21:04:49:3c:28:50:9f:
        5d:4f:d8:68:75:64:6b:8b:1e:90:3c:ab:09:ae:c0:9b:79:66:
        75:c1:ce:af:24:4c:c5:d5:05:72:bc:03:71:cd
-----BEGIN CERTIFICATE-----
MIIChDCCAgmgAwIBAgIBATAKBggqhkjOPQQDAjB6MREwDwYDVQQDDAhJU0VOIEFD
UjEPMA0GA1UECAwGRnJhbmNlMQswCQYDVQQGEwJGUjEpMCcGCSqGSIb3DQEJARYa
aHVnby5taWxsZXRAaXNlbi55bmNyZWEuZnIxDTALBgNVBAoMBElTRU4xDTALBgNV
BAsMBElTRU4wHhcNMjMwNDI0MTIzOTIxWhcNMjQwNDIzMTIzOTIxWjB6MREwDwYD
VQQDDAhJU0VOIEFDSTEPMA0GA1UECAwGRnJhbmNlMQswCQYDVQQGEwJGUjEpMCcG
CSqGSIb3DQEJARYaaHVnby5taWxsZXRAaXNlbi55bmNyZWEuZnIxDTALBgNVBAoM
BElTRU4xDTALBgNVBAsMBElTRU4wdjAQBgcqhkjOPQIBBgUrgQQAIgNiAAR6dG8M
X86gKYlR7x3+RPrODlS4ebnBLVqMRVTYFQyXgmTucHbJi3LTllWHsde47KchT5rt
T1pzeyxaUCzHvvg6zPdCCarojgvm3Afg3+CSMaHMMJw6nWkFQUPVpQzv1wSjYzBh
MBIGA1UdEwEB/wQIMAYBAf8CAQAwCwYDVR0PBAQDAgKkMB0GA1UdDgQWBBRWF3QB
nu2ZTR63U8xCdZiMG+dcZDAfBgNVHSMEGDAWgBTpz5Lv1R5JEo2dcDzmS7sQFbfw
ITAKBggqhkjOPQQDAgNpADBmAjEA88G6zpdIKcfHQzOkrGybtDYX9ITg3Glwo9q5
4MXVjgYNk06787Uvv6vK7eFVMAJUAjEAj/Zdn2zi3oaOIQRJPChQn11P2Gh1ZGuL
HpA8qwmuwJt5ZnXBzq8kTMXVBXK8A3HN
-----END CERTIFICATE-----
