Certificate:
    Data:
        Version: 3 (0x2)
        Serial Number: 1 (0x1)
        Signature Algorithm: ecdsa-with-SHA256
        Issuer: CN=ISEN ACR, ST=France, C=FR/emailAddress=hugo.millet@isen.yncrea.fr, O=ISEN, OU=ISEN
        Validity
            Not Before: Apr 30 16:03:07 2023 GMT
            Not After : Apr 28 16:03:07 2028 GMT
        Subject: CN=ISEN ACI, ST=France, C=FR/emailAddress=hugo.millet@isen.yncrea.fr, O=ISEN, OU=ISEN
        Subject Public Key Info:
            Public Key Algorithm: id-ecPublicKey
                Public-Key: (256 bit)
                pub:
                    04:7d:40:7c:27:be:7a:ee:ec:81:96:84:b6:e1:0e:
                    4e:45:24:28:b8:19:b4:e9:58:fa:b8:ea:23:3b:da:
                    4c:65:95:6b:51:ba:98:4e:da:b6:5d:c8:73:8e:81:
                    6e:dc:d1:d9:0c:38:6f:22:ab:86:2d:b0:e7:94:75:
                    7f:e7:25:82:30
                ASN1 OID: prime256v1
                NIST CURVE: P-256
        X509v3 extensions:
            X509v3 Basic Constraints: critical
                CA:TRUE, pathlen:0
            Authority Information Access: 
                OCSP - URI:http://127.0.0.1:8888
            X509v3 Key Usage: 
                Digital Signature, Key Encipherment, Certificate Sign
            X509v3 Subject Key Identifier: 
                48:7B:7D:22:D6:15:53:0D:ED:7A:14:46:2D:10:B5:9B:73:B3:FB:3F
            X509v3 Authority Key Identifier: 
                F5:A7:6C:0B:2A:E8:0A:D6:7F:40:B7:4B:49:74:AF:69:7F:7C:76:E6
    Signature Algorithm: ecdsa-with-SHA256
    Signature Value:
        30:45:02:21:00:99:ef:67:9a:82:ef:3b:bb:19:0c:66:65:1b:
        9d:29:a1:e8:71:c2:f3:4b:7e:7a:99:71:55:4d:95:61:54:b3:
        18:02:20:38:90:b5:fa:03:4e:fe:d2:2e:b2:71:59:e6:aa:5e:
        e9:75:9b:52:e1:a1:42:54:66:2d:59:d2:86:b5:99:f5:96
-----BEGIN CERTIFICATE-----
MIICezCCAiGgAwIBAgIBATAKBggqhkjOPQQDAjB6MREwDwYDVQQDDAhJU0VOIEFD
UjEPMA0GA1UECAwGRnJhbmNlMQswCQYDVQQGEwJGUjEpMCcGCSqGSIb3DQEJARYa
aHVnby5taWxsZXRAaXNlbi55bmNyZWEuZnIxDTALBgNVBAoMBElTRU4xDTALBgNV
BAsMBElTRU4wHhcNMjMwNDMwMTYwMzA3WhcNMjgwNDI4MTYwMzA3WjB6MREwDwYD
VQQDDAhJU0VOIEFDSTEPMA0GA1UECAwGRnJhbmNlMQswCQYDVQQGEwJGUjEpMCcG
CSqGSIb3DQEJARYaaHVnby5taWxsZXRAaXNlbi55bmNyZWEuZnIxDTALBgNVBAoM
BElTRU4xDTALBgNVBAsMBElTRU4wWTATBgcqhkjOPQIBBggqhkjOPQMBBwNCAAR9
QHwnvnru7IGWhLbhDk5FJCi4GbTpWPq46iM72kxllWtRuphO2rZdyHOOgW7c0dkM
OG8iq4YtsOeUdX/nJYIwo4GXMIGUMBIGA1UdEwEB/wQIMAYBAf8CAQAwMQYIKwYB
BQUHAQEEJTAjMCEGCCsGAQUFBzABhhVodHRwOi8vMTI3LjAuMC4xOjg4ODgwCwYD
VR0PBAQDAgKkMB0GA1UdDgQWBBRIe30i1hVTDe16FEYtELWbc7P7PzAfBgNVHSME
GDAWgBT1p2wLKugK1n9At0tJdK9pf3x25jAKBggqhkjOPQQDAgNIADBFAiEAme9n
moLvO7sZDGZlG50poehxwvNLfnqZcVVNlWFUsxgCIDiQtfoDTv7SLrJxWeaqXul1
m1LhoUJUZi1Z0oa1mfWW
-----END CERTIFICATE-----
