Certificate:
    Data:
        Version: 3 (0x2)
        Serial Number: 1 (0x1)
        Signature Algorithm: ecdsa-with-SHA256
        Issuer: CN=ISEN ACR, ST=France, C=FR/emailAddress=hugo.millet@isen.yncrea.fr, O=ISEN, OU=ISEN
        Validity
            Not Before: Apr 28 13:36:01 2023 GMT
            Not After : Apr 27 13:36:01 2024 GMT
        Subject: CN=ISEN ACI, ST=France, C=FR/emailAddress=hugo.millet@isen.yncrea.fr, O=ISEN, OU=ISEN
        Subject Public Key Info:
            Public Key Algorithm: id-ecPublicKey
                Public-Key: (384 bit)
                pub:
                    04:46:ec:d6:dc:98:cc:e4:aa:c8:98:67:b9:14:1a:
                    cc:63:27:68:ad:47:06:0f:e3:ca:e2:25:0f:72:e5:
                    4d:21:73:2e:c1:11:ef:55:85:b1:bf:7f:d1:15:f4:
                    7d:aa:3f:7c:e4:be:40:0a:b9:c3:bc:2b:18:8b:1b:
                    f4:de:c7:7e:db:b3:eb:01:00:98:bb:1e:52:fb:82:
                    0e:1d:61:ce:d3:b3:a3:1f:5e:2a:76:f7:4d:62:3b:
                    91:83:c5:39:24:6e:54
                ASN1 OID: secp384r1
                NIST CURVE: P-384
        X509v3 extensions:
            X509v3 Basic Constraints: critical
                CA:TRUE, pathlen:0
            X509v3 Key Usage: 
                Digital Signature, Key Encipherment, Certificate Sign
            X509v3 Subject Key Identifier: 
                68:67:11:CD:F3:D7:1E:22:49:58:B9:4A:20:4F:9E:9D:B9:04:7D:69
            X509v3 Authority Key Identifier: 
                16:9C:58:6C:51:06:09:2F:07:80:F7:F2:EB:87:11:00:F0:18:7B:15
    Signature Algorithm: ecdsa-with-SHA256
    Signature Value:
        30:66:02:31:00:ff:e6:11:06:15:fe:dc:c7:38:c3:76:a0:73:
        6e:0b:c8:24:3a:98:22:a8:a5:b3:a3:7c:6b:00:f3:72:43:0d:
        f4:8f:3f:6e:fa:e3:3d:58:bf:1b:ba:60:e6:5a:d6:96:22:02:
        31:00:96:99:88:ae:18:0d:e6:46:62:c8:b2:7b:21:64:6c:fc:
        f3:a2:a5:24:f8:9f:c5:f4:f6:e9:c4:95:57:83:47:07:ad:94:
        87:b5:b1:33:0c:f4:e9:9a:0c:e6:4c:99:93:dd
-----BEGIN CERTIFICATE-----
MIIChDCCAgmgAwIBAgIBATAKBggqhkjOPQQDAjB6MREwDwYDVQQDDAhJU0VOIEFD
UjEPMA0GA1UECAwGRnJhbmNlMQswCQYDVQQGEwJGUjEpMCcGCSqGSIb3DQEJARYa
aHVnby5taWxsZXRAaXNlbi55bmNyZWEuZnIxDTALBgNVBAoMBElTRU4xDTALBgNV
BAsMBElTRU4wHhcNMjMwNDI4MTMzNjAxWhcNMjQwNDI3MTMzNjAxWjB6MREwDwYD
VQQDDAhJU0VOIEFDSTEPMA0GA1UECAwGRnJhbmNlMQswCQYDVQQGEwJGUjEpMCcG
CSqGSIb3DQEJARYaaHVnby5taWxsZXRAaXNlbi55bmNyZWEuZnIxDTALBgNVBAoM
BElTRU4xDTALBgNVBAsMBElTRU4wdjAQBgcqhkjOPQIBBgUrgQQAIgNiAARG7Nbc
mMzkqsiYZ7kUGsxjJ2itRwYP48riJQ9y5U0hcy7BEe9VhbG/f9EV9H2qP3zkvkAK
ucO8KxiLG/Tex37bs+sBAJi7HlL7gg4dYc7Ts6MfXip2901iO5GDxTkkblSjYzBh
MBIGA1UdEwEB/wQIMAYBAf8CAQAwCwYDVR0PBAQDAgKkMB0GA1UdDgQWBBRoZxHN
89ceIklYuUogT56duQR9aTAfBgNVHSMEGDAWgBQWnFhsUQYJLweA9/LrhxEA8Bh7
FTAKBggqhkjOPQQDAgNpADBmAjEA/+YRBhX+3Mc4w3agc24LyCQ6mCKopbOjfGsA
83JDDfSPP2764z1Yvxu6YOZa1pYiAjEAlpmIrhgN5kZiyLJ7IWRs/POipST4n8X0
9unElVeDRwetlIe1sTMM9OmaDOZMmZPd
-----END CERTIFICATE-----
