Certificate:
    Data:
        Version: 3 (0x2)
        Serial Number: 1 (0x1)
        Signature Algorithm: ecdsa-with-SHA256
        Issuer: CN=ISEN ACR, ST=France, C=FR/emailAddress=hugo.millet@isen.yncrea.fr, O=ISEN, OU=ISEN
        Validity
            Not Before: Apr 26 15:34:26 2023 GMT
            Not After : Apr 25 15:34:26 2024 GMT
        Subject: CN=ISEN ACI, ST=France, C=FR/emailAddress=hugo.millet@isen.yncrea.fr, O=ISEN, OU=ISEN
        Subject Public Key Info:
            Public Key Algorithm: id-ecPublicKey
                Public-Key: (384 bit)
                pub:
                    04:e6:1d:33:77:d5:55:48:02:6e:62:44:25:3b:5b:
                    f5:b6:cf:4b:d7:0a:4a:25:f9:9c:00:7d:97:c7:4c:
                    0f:98:13:ec:5f:35:9b:d1:55:e6:81:08:2a:fb:96:
                    a3:b8:f4:c0:06:dc:f1:19:c3:e8:c2:b9:87:9d:1e:
                    0c:23:7f:c6:b5:3c:41:34:d2:73:b8:01:02:ca:c4:
                    66:78:96:2f:19:a1:35:08:19:df:65:88:83:22:bb:
                    73:9a:20:0d:13:b3:f6
                ASN1 OID: secp384r1
                NIST CURVE: P-384
        X509v3 extensions:
            X509v3 Basic Constraints: critical
                CA:TRUE, pathlen:0
            X509v3 Key Usage: 
                Digital Signature, Key Encipherment, Certificate Sign
            X509v3 Subject Key Identifier: 
                C0:95:CE:D7:5D:09:5F:F7:31:AB:63:44:43:5A:1A:F9:A0:65:D8:A0
            X509v3 Authority Key Identifier: 
                04:78:BC:71:4D:1A:72:B2:04:2C:7F:B2:D0:6F:05:5F:E5:95:E2:79
    Signature Algorithm: ecdsa-with-SHA256
    Signature Value:
        30:64:02:30:77:56:eb:e8:83:17:f2:fe:1f:63:0d:16:1f:37:
        9b:d2:23:2b:07:14:c0:dc:8d:dc:73:ba:f5:d3:07:af:79:2c:
        fe:38:f0:69:41:d9:ba:0f:a6:bd:ad:38:f7:3f:01:dc:02:30:
        35:c6:00:63:c6:22:54:95:9a:3a:49:09:c2:72:51:2d:99:ca:
        af:65:c6:08:26:7d:7e:02:44:01:7e:94:66:56:ed:c9:b0:e9:
        5c:b2:ac:6d:cb:5d:9a:83:dc:3f:f1:66
-----BEGIN CERTIFICATE-----
MIICgjCCAgmgAwIBAgIBATAKBggqhkjOPQQDAjB6MREwDwYDVQQDDAhJU0VOIEFD
UjEPMA0GA1UECAwGRnJhbmNlMQswCQYDVQQGEwJGUjEpMCcGCSqGSIb3DQEJARYa
aHVnby5taWxsZXRAaXNlbi55bmNyZWEuZnIxDTALBgNVBAoMBElTRU4xDTALBgNV
BAsMBElTRU4wHhcNMjMwNDI2MTUzNDI2WhcNMjQwNDI1MTUzNDI2WjB6MREwDwYD
VQQDDAhJU0VOIEFDSTEPMA0GA1UECAwGRnJhbmNlMQswCQYDVQQGEwJGUjEpMCcG
CSqGSIb3DQEJARYaaHVnby5taWxsZXRAaXNlbi55bmNyZWEuZnIxDTALBgNVBAoM
BElTRU4xDTALBgNVBAsMBElTRU4wdjAQBgcqhkjOPQIBBgUrgQQAIgNiAATmHTN3
1VVIAm5iRCU7W/W2z0vXCkol+ZwAfZfHTA+YE+xfNZvRVeaBCCr7lqO49MAG3PEZ
w+jCuYedHgwjf8a1PEE00nO4AQLKxGZ4li8ZoTUIGd9liIMiu3OaIA0Ts/ajYzBh
MBIGA1UdEwEB/wQIMAYBAf8CAQAwCwYDVR0PBAQDAgKkMB0GA1UdDgQWBBTAlc7X
XQlf9zGrY0RDWhr5oGXYoDAfBgNVHSMEGDAWgBQEeLxxTRpysgQsf7LQbwVf5ZXi
eTAKBggqhkjOPQQDAgNnADBkAjB3Vuvogxfy/h9jDRYfN5vSIysHFMDcjdxzuvXT
B695LP448GlB2boPpr2tOPc/AdwCMDXGAGPGIlSVmjpJCcJyUS2Zyq9lxggmfX4C
RAF+lGZW7cmw6VyyrG3LXZqD3D/xZg==
-----END CERTIFICATE-----
