Certificate:
    Data:
        Version: 3 (0x2)
        Serial Number: 2 (0x2)
        Signature Algorithm: ecdsa-with-SHA256
        Issuer: CN=ISEN ACI, ST=France, C=FR/emailAddress=hugo.millet@isen.yncrea.fr, O=ISEN, OU=ISEN
        Validity
            Not Before: Apr 28 13:03:08 2023 GMT
            Not After : Apr 27 13:03:08 2024 GMT
        Subject: CN=ISEN OSCP, ST=France, C=FR/emailAddress=hugo.millet@isen.yncrea.fr, O=ISEN, OU=ISEN
        Subject Public Key Info:
            Public Key Algorithm: rsaEncryption
                Public-Key: (2048 bit)
                Modulus:
                    00:d0:ea:e4:20:0d:79:77:93:9c:a6:49:93:b9:b7:
                    eb:96:e4:2e:0e:af:d1:ff:99:0a:4c:06:97:af:dd:
                    8d:e6:27:37:82:c1:c5:e0:f1:24:96:41:fa:2f:ae:
                    bc:f6:cf:f2:b4:4c:ec:a5:4e:ce:08:04:af:c4:45:
                    55:1a:a0:d8:08:93:a8:76:89:98:73:b1:de:8f:b9:
                    a3:58:f3:6b:d7:ae:6a:06:2b:ff:bd:f7:ce:07:76:
                    9f:f4:60:b1:bf:8c:de:98:90:6a:b8:65:3a:b7:b5:
                    75:54:e8:83:f4:73:32:29:07:b7:9d:33:22:c9:d4:
                    56:c1:3e:7a:21:09:d1:b2:dc:69:62:e7:21:97:2f:
                    17:0d:b3:ac:7a:b8:f2:38:a0:4c:19:cb:23:bd:1b:
                    ab:b8:58:ac:4b:dc:a6:e2:28:c2:3d:ee:2a:c2:06:
                    91:be:5e:4b:b7:d6:b0:a7:46:8b:89:0f:ba:49:60:
                    47:3b:c1:e9:ee:3a:00:4d:fd:cd:c8:97:ed:0a:67:
                    9b:b9:fa:01:98:7e:ae:af:be:81:0b:47:f5:00:b2:
                    d5:a3:43:b1:3f:cd:73:b9:29:9c:41:3b:7b:d6:0e:
                    0b:3a:89:db:0e:87:8c:4a:14:e3:43:eb:12:c1:28:
                    6c:35:0f:16:ec:c0:da:99:d3:9b:7b:0f:a9:01:37:
                    f6:eb
                Exponent: 65537 (0x10001)
        X509v3 extensions:
            X509v3 Basic Constraints: critical
                CA:TRUE, pathlen:0
            X509v3 Key Usage: 
                Digital Signature, Key Encipherment
            X509v3 Subject Key Identifier: 
                2C:6C:99:C5:E0:B9:2E:76:B6:87:F3:BD:18:D9:3A:7D:CF:D1:67:3B
            X509v3 Authority Key Identifier: 
                AD:CA:FC:9E:24:D9:1D:DE:9A:9E:BC:83:1E:F1:6C:1B:96:88:5E:AF
    Signature Algorithm: ecdsa-with-SHA256
    Signature Value:
        30:65:02:31:00:81:58:3e:14:d7:74:99:a6:74:66:6e:63:ce:
        e3:27:e1:6c:25:1d:7b:05:62:48:cf:a3:c0:91:f1:17:6e:00:
        b7:57:bb:b0:e3:38:5b:87:3a:74:85:d0:aa:cb:14:14:b7:02:
        30:2b:a1:67:c2:4a:8f:e5:4d:2c:c0:50:65:41:32:44:ee:08:
        a5:73:ba:d3:22:b3:7a:1c:c4:13:9b:c3:dc:b0:ce:3f:f3:50:
        b8:f8:99:78:5d:d1:4a:71:54:e7:b7:be:20
-----BEGIN CERTIFICATE-----
MIIDMjCCArigAwIBAgIBAjAKBggqhkjOPQQDAjB6MREwDwYDVQQDDAhJU0VOIEFD
STEPMA0GA1UECAwGRnJhbmNlMQswCQYDVQQGEwJGUjEpMCcGCSqGSIb3DQEJARYa
aHVnby5taWxsZXRAaXNlbi55bmNyZWEuZnIxDTALBgNVBAoMBElTRU4xDTALBgNV
BAsMBElTRU4wHhcNMjMwNDI4MTMwMzA4WhcNMjQwNDI3MTMwMzA4WjB7MRIwEAYD
VQQDDAlJU0VOIE9TQ1AxDzANBgNVBAgMBkZyYW5jZTELMAkGA1UEBhMCRlIxKTAn
BgkqhkiG9w0BCQEWGmh1Z28ubWlsbGV0QGlzZW4ueW5jcmVhLmZyMQ0wCwYDVQQK
DARJU0VOMQ0wCwYDVQQLDARJU0VOMIIBIjANBgkqhkiG9w0BAQEFAAOCAQ8AMIIB
CgKCAQEA0OrkIA15d5OcpkmTubfrluQuDq/R/5kKTAaXr92N5ic3gsHF4PEklkH6
L6689s/ytEzspU7OCASvxEVVGqDYCJOodomYc7Hej7mjWPNr165qBiv/vffOB3af
9GCxv4zemJBquGU6t7V1VOiD9HMyKQe3nTMiydRWwT56IQnRstxpYuchly8XDbOs
erjyOKBMGcsjvRuruFisS9ym4ijCPe4qwgaRvl5Lt9awp0aLiQ+6SWBHO8Hp7joA
Tf3NyJftCmebufoBmH6ur76BC0f1ALLVo0OxP81zuSmcQTt71g4LOonbDoeMShTj
Q+sSwShsNQ8W7MDamdObew+pATf26wIDAQABo2MwYTASBgNVHRMBAf8ECDAGAQH/
AgEAMAsGA1UdDwQEAwIFoDAdBgNVHQ4EFgQULGyZxeC5Lna2h/O9GNk6fc/RZzsw
HwYDVR0jBBgwFoAUrcr8niTZHd6anryDHvFsG5aIXq8wCgYIKoZIzj0EAwIDaAAw
ZQIxAIFYPhTXdJmmdGZuY87jJ+FsJR17BWJIz6PAkfEXbgC3V7uw4zhbhzp0hdCq
yxQUtwIwK6FnwkqP5U0swFBlQTJE7gilc7rTIrN6HMQTm8PcsM4/81C4+Jl4XdFK
cVTnt74g
-----END CERTIFICATE-----
