Certificate:
    Data:
        Version: 3 (0x2)
        Serial Number: 2 (0x2)
        Signature Algorithm: ecdsa-with-SHA256
        Issuer: CN=ISEN ACI, ST=France, C=FR/emailAddress=hugo.millet@isen.yncrea.fr, O=ISEN, OU=ISEN
        Validity
            Not Before: Apr 30 15:00:15 2023 GMT
            Not After : Apr 29 15:00:15 2024 GMT
        Subject: CN=ISEN OSCP, ST=France, C=FR/emailAddress=hugo.millet@isen.yncrea.fr, O=ISEN, OU=ISEN
        Subject Public Key Info:
            Public Key Algorithm: rsaEncryption
                Public-Key: (2048 bit)
                Modulus:
                    00:9a:40:d9:6a:c7:09:22:5e:a9:8d:6a:8d:0a:2b:
                    8d:b4:de:aa:1f:84:92:f3:3b:93:5d:b0:a2:bd:12:
                    06:66:62:04:58:cd:6c:2f:71:f3:db:f3:a1:83:f0:
                    e1:a5:93:34:b7:50:ae:2f:75:34:44:98:7f:75:72:
                    b9:db:bd:9b:5b:2a:88:9b:c5:cd:34:b4:9b:a5:44:
                    76:04:43:1e:54:67:04:3f:b3:fe:af:aa:0e:9d:ca:
                    b3:85:00:e7:6c:0d:62:fe:08:f7:84:ba:0e:48:c9:
                    03:93:7a:e9:a4:e5:83:9c:d1:76:bf:2e:8b:48:e5:
                    95:65:a7:b7:83:15:b5:1f:22:3e:ab:00:96:db:10:
                    38:91:9a:4d:3b:bc:cf:3c:40:6e:9e:c7:01:36:d5:
                    c5:8e:68:55:2e:33:7c:d0:1f:a9:e1:ed:52:84:9d:
                    1d:6a:60:90:d6:93:da:4f:a7:2a:88:bf:4c:0d:b3:
                    49:f2:75:8a:18:97:3c:b2:d8:0a:08:7a:80:e8:4c:
                    72:98:1c:ff:15:e1:d6:dd:0f:89:b5:ad:e1:94:1d:
                    c2:d2:8e:be:a8:d4:50:85:2e:c5:f6:35:be:ef:b5:
                    8f:96:97:80:a1:95:b8:2f:3c:9f:a9:0f:e9:72:6b:
                    36:1c:90:d7:4c:7c:53:9f:fa:37:2f:c6:5c:86:d7:
                    c3:8f
                Exponent: 65537 (0x10001)
        X509v3 extensions:
            X509v3 Basic Constraints: critical
                CA:TRUE, pathlen:0
            Authority Information Access: 
                OCSP - URI:http://127.0.0.1:8888
            X509v3 Key Usage: 
                Digital Signature, Key Encipherment
            X509v3 Subject Key Identifier: 
                A9:7B:D1:0E:6D:92:37:D1:E6:97:3E:91:E9:61:5C:73:FB:65:A1:FD
            X509v3 Authority Key Identifier: 
                B6:7A:2D:7D:35:E0:E1:22:47:C1:48:2F:A5:4E:84:50:56:15:32:E5
    Signature Algorithm: ecdsa-with-SHA256
    Signature Value:
        30:46:02:21:00:b2:4e:cf:69:a0:87:de:f7:36:5c:f1:cd:fa:
        4f:dc:b5:38:b0:2f:a6:d3:e5:1f:57:84:f9:f4:17:37:7f:19:
        35:02:21:00:f1:75:c4:46:55:c7:c4:bf:04:33:ed:57:3a:2c:
        60:a6:3a:cd:78:cd:13:33:c5:ae:6b:da:12:53:36:c9:02:59
-----BEGIN CERTIFICATE-----
MIIDSDCCAu2gAwIBAgIBAjAKBggqhkjOPQQDAjB6MREwDwYDVQQDDAhJU0VOIEFD
STEPMA0GA1UECAwGRnJhbmNlMQswCQYDVQQGEwJGUjEpMCcGCSqGSIb3DQEJARYa
aHVnby5taWxsZXRAaXNlbi55bmNyZWEuZnIxDTALBgNVBAoMBElTRU4xDTALBgNV
BAsMBElTRU4wHhcNMjMwNDMwMTUwMDE1WhcNMjQwNDI5MTUwMDE1WjB7MRIwEAYD
VQQDDAlJU0VOIE9TQ1AxDzANBgNVBAgMBkZyYW5jZTELMAkGA1UEBhMCRlIxKTAn
BgkqhkiG9w0BCQEWGmh1Z28ubWlsbGV0QGlzZW4ueW5jcmVhLmZyMQ0wCwYDVQQK
DARJU0VOMQ0wCwYDVQQLDARJU0VOMIIBIjANBgkqhkiG9w0BAQEFAAOCAQ8AMIIB
CgKCAQEAmkDZascJIl6pjWqNCiuNtN6qH4SS8zuTXbCivRIGZmIEWM1sL3Hz2/Oh
g/DhpZM0t1CuL3U0RJh/dXK5272bWyqIm8XNNLSbpUR2BEMeVGcEP7P+r6oOncqz
hQDnbA1i/gj3hLoOSMkDk3rppOWDnNF2vy6LSOWVZae3gxW1HyI+qwCW2xA4kZpN
O7zPPEBunscBNtXFjmhVLjN80B+p4e1ShJ0damCQ1pPaT6cqiL9MDbNJ8nWKGJc8
stgKCHqA6ExymBz/FeHW3Q+Jta3hlB3C0o6+qNRQhS7F9jW+77WPlpeAoZW4Lzyf
qQ/pcms2HJDXTHxTn/o3L8ZchtfDjwIDAQABo4GXMIGUMBIGA1UdEwEB/wQIMAYB
Af8CAQAwMQYIKwYBBQUHAQEEJTAjMCEGCCsGAQUFBzABhhVodHRwOi8vMTI3LjAu
MC4xOjg4ODgwCwYDVR0PBAQDAgWgMB0GA1UdDgQWBBSpe9EObZI30eaXPpHpYVxz
+2Wh/TAfBgNVHSMEGDAWgBS2ei19NeDhIkfBSC+lToRQVhUy5TAKBggqhkjOPQQD
AgNJADBGAiEAsk7PaaCH3vc2XPHN+k/ctTiwL6bT5R9XhPn0Fzd/GTUCIQDxdcRG
VcfEvwQz7Vc6LGCmOs14zRMzxa5r2hJTNskCWQ==
-----END CERTIFICATE-----
