Certificate:
    Data:
        Version: 3 (0x2)
        Serial Number: 2 (0x2)
        Signature Algorithm: ecdsa-with-SHA256
        Issuer: CN=ISEN ACI, ST=France, C=FR/emailAddress=hugo.millet@isen.yncrea.fr, O=ISEN, OU=ISEN
        Validity
            Not Before: Apr 30 14:26:07 2023 GMT
            Not After : Apr 29 14:26:07 2024 GMT
        Subject: CN=ISEN OSCP, ST=France, C=FR/emailAddress=hugo.millet@isen.yncrea.fr, O=ISEN, OU=ISEN
        Subject Public Key Info:
            Public Key Algorithm: rsaEncryption
                Public-Key: (2048 bit)
                Modulus:
                    00:c8:23:74:e9:c5:fb:c5:17:7b:b8:d7:ab:00:3e:
                    90:11:fb:ec:d0:9d:db:44:6c:85:e8:a7:e9:5e:1b:
                    b2:50:ae:49:c8:b1:50:90:74:31:8a:bc:d9:63:6e:
                    f1:9d:07:d8:17:99:d0:63:df:b8:91:9c:47:2a:ab:
                    40:92:28:04:95:2b:a0:22:95:82:38:0f:29:f2:6a:
                    3d:9a:f4:52:29:76:3f:58:fe:63:fc:23:02:ba:b1:
                    c6:23:69:a6:22:77:5d:a9:ab:ff:91:0e:4f:70:ac:
                    f5:6f:1b:8f:71:03:12:15:6f:24:8c:48:a8:fb:84:
                    b8:03:f7:a3:e1:ea:14:f3:d8:e3:45:0f:83:00:d2:
                    4e:f4:cc:1d:a6:df:da:5f:88:10:10:4f:41:f3:a1:
                    22:15:2b:f6:18:0c:8e:e8:96:3b:bd:12:89:e3:47:
                    47:c8:76:0d:55:a7:cf:64:ba:ae:50:17:06:12:0e:
                    1a:09:6f:71:39:3b:d5:0e:95:89:8a:96:38:bd:fb:
                    a8:6e:de:4d:ad:a7:1f:89:e9:62:86:6f:9b:91:c9:
                    3d:7f:74:ec:af:d3:9a:9f:17:c3:f4:40:52:0a:90:
                    29:87:f0:de:64:3c:82:ec:10:fa:95:2d:06:ae:68:
                    b2:03:1d:0e:15:72:9c:8e:8e:09:7f:5a:9a:33:77:
                    58:bf
                Exponent: 65537 (0x10001)
        X509v3 extensions:
            X509v3 Basic Constraints: critical
                CA:TRUE, pathlen:0
            Authority Information Access: 
                OCSP - URI:http://127.0.0.1:8888
            X509v3 Key Usage: 
                Digital Signature, Key Encipherment
            X509v3 Subject Key Identifier: 
                42:6D:3D:7F:BF:5C:47:2D:10:4C:3B:8E:6F:65:11:8A:66:E6:C4:FA
            X509v3 Authority Key Identifier: 
                A6:DD:9E:7D:56:00:50:DD:E2:2C:B7:2C:34:0B:E3:BE:E9:BB:EE:4C
    Signature Algorithm: ecdsa-with-SHA256
    Signature Value:
        30:65:02:31:00:cd:50:6a:cf:0c:3d:45:c8:85:3a:39:d7:63:
        7a:4d:12:b6:bb:28:63:2d:52:0c:9f:cd:66:44:ee:18:fa:dd:
        89:2a:25:84:02:f4:eb:8c:55:94:6e:99:15:47:9c:b5:c2:02:
        30:2e:0f:e4:9f:bf:3c:70:98:88:88:2b:31:e3:3c:d5:04:60:
        01:10:d9:89:af:6b:e2:d2:a2:84:c1:61:cb:b7:30:c5:35:ab:
        f3:23:d8:86:40:78:de:fa:5c:82:ed:c0:16
-----BEGIN CERTIFICATE-----
MIIDZzCCAu2gAwIBAgIBAjAKBggqhkjOPQQDAjB6MREwDwYDVQQDDAhJU0VOIEFD
STEPMA0GA1UECAwGRnJhbmNlMQswCQYDVQQGEwJGUjEpMCcGCSqGSIb3DQEJARYa
aHVnby5taWxsZXRAaXNlbi55bmNyZWEuZnIxDTALBgNVBAoMBElTRU4xDTALBgNV
BAsMBElTRU4wHhcNMjMwNDMwMTQyNjA3WhcNMjQwNDI5MTQyNjA3WjB7MRIwEAYD
VQQDDAlJU0VOIE9TQ1AxDzANBgNVBAgMBkZyYW5jZTELMAkGA1UEBhMCRlIxKTAn
BgkqhkiG9w0BCQEWGmh1Z28ubWlsbGV0QGlzZW4ueW5jcmVhLmZyMQ0wCwYDVQQK
DARJU0VOMQ0wCwYDVQQLDARJU0VOMIIBIjANBgkqhkiG9w0BAQEFAAOCAQ8AMIIB
CgKCAQEAyCN06cX7xRd7uNerAD6QEfvs0J3bRGyF6KfpXhuyUK5JyLFQkHQxirzZ
Y27xnQfYF5nQY9+4kZxHKqtAkigElSugIpWCOA8p8mo9mvRSKXY/WP5j/CMCurHG
I2mmInddqav/kQ5PcKz1bxuPcQMSFW8kjEio+4S4A/ej4eoU89jjRQ+DANJO9Mwd
pt/aX4gQEE9B86EiFSv2GAyO6JY7vRKJ40dHyHYNVafPZLquUBcGEg4aCW9xOTvV
DpWJipY4vfuobt5Nracfielihm+bkck9f3Tsr9OanxfD9EBSCpAph/DeZDyC7BD6
lS0GrmiyAx0OFXKcjo4Jf1qaM3dYvwIDAQABo4GXMIGUMBIGA1UdEwEB/wQIMAYB
Af8CAQAwMQYIKwYBBQUHAQEEJTAjMCEGCCsGAQUFBzABhhVodHRwOi8vMTI3LjAu
MC4xOjg4ODgwCwYDVR0PBAQDAgWgMB0GA1UdDgQWBBRCbT1/v1xHLRBMO45vZRGK
ZubE+jAfBgNVHSMEGDAWgBSm3Z59VgBQ3eIstyw0C+O+6bvuTDAKBggqhkjOPQQD
AgNoADBlAjEAzVBqzww9RciFOjnXY3pNEra7KGMtUgyfzWZE7hj63YkqJYQC9OuM
VZRumRVHnLXCAjAuD+SfvzxwmIiIKzHjPNUEYAEQ2Ymva+LSooTBYcu3MMU1q/Mj
2IZAeN76XILtwBY=
-----END CERTIFICATE-----
