Certificate:
    Data:
        Version: 3 (0x2)
        Serial Number: 2 (0x2)
        Signature Algorithm: ecdsa-with-SHA256
        Issuer: CN=ISEN ACI, ST=France, C=FR/emailAddress=hugo.millet@isen.yncrea.fr, O=ISEN, OU=ISEN
        Validity
            Not Before: Apr 30 16:03:07 2023 GMT
            Not After : Apr 28 16:03:07 2028 GMT
        Subject: CN=ISEN OSCP, ST=France, C=FR/emailAddress=hugo.millet@isen.yncrea.fr, O=ISEN, OU=ISEN
        Subject Public Key Info:
            Public Key Algorithm: id-ecPublicKey
                Public-Key: (256 bit)
                pub:
                    04:9c:e4:d9:cf:ce:2c:f8:fd:94:ba:69:19:6c:03:
                    df:d5:4f:59:98:65:94:bb:1e:20:8c:3d:cc:69:a6:
                    0a:75:58:fd:28:c6:17:df:b0:2a:36:28:8f:c9:0f:
                    ed:d0:a2:82:8b:a9:c1:05:70:e1:b5:c1:ac:87:0c:
                    26:06:26:01:42
                ASN1 OID: prime256v1
                NIST CURVE: P-256
        X509v3 extensions:
            X509v3 Basic Constraints: critical
                CA:FALSE
            X509v3 Key Usage: 
                Digital Signature, Non Repudiation, Key Encipherment
            X509v3 Extended Key Usage: 
                OCSP Signing
            X509v3 Subject Key Identifier: 
                16:BC:05:BD:97:52:3D:1E:1B:09:12:CE:04:EA:12:45:9A:1E:46:EB
            X509v3 Authority Key Identifier: 
                48:7B:7D:22:D6:15:53:0D:ED:7A:14:46:2D:10:B5:9B:73:B3:FB:3F
    Signature Algorithm: ecdsa-with-SHA256
    Signature Value:
        30:45:02:20:7b:1a:03:b4:d8:66:aa:46:67:f0:90:f7:95:6b:
        5b:19:ee:3e:9c:f5:94:9d:99:5b:d9:51:68:69:ad:d9:5a:69:
        02:21:00:bf:7d:84:47:ef:81:4a:cf:20:8a:1c:6f:df:7d:40:
        19:f7:3f:85:66:39:2d:44:5d:6c:2d:6b:6f:cb:51:2e:4d
-----BEGIN CERTIFICATE-----
MIICVjCCAfygAwIBAgIBAjAKBggqhkjOPQQDAjB6MREwDwYDVQQDDAhJU0VOIEFD
STEPMA0GA1UECAwGRnJhbmNlMQswCQYDVQQGEwJGUjEpMCcGCSqGSIb3DQEJARYa
aHVnby5taWxsZXRAaXNlbi55bmNyZWEuZnIxDTALBgNVBAoMBElTRU4xDTALBgNV
BAsMBElTRU4wHhcNMjMwNDMwMTYwMzA3WhcNMjgwNDI4MTYwMzA3WjB7MRIwEAYD
VQQDDAlJU0VOIE9TQ1AxDzANBgNVBAgMBkZyYW5jZTELMAkGA1UEBhMCRlIxKTAn
BgkqhkiG9w0BCQEWGmh1Z28ubWlsbGV0QGlzZW4ueW5jcmVhLmZyMQ0wCwYDVQQK
DARJU0VOMQ0wCwYDVQQLDARJU0VOMFkwEwYHKoZIzj0CAQYIKoZIzj0DAQcDQgAE
nOTZz84s+P2UumkZbAPf1U9ZmGWUux4gjD3MaaYKdVj9KMYX37AqNiiPyQ/t0KKC
i6nBBXDhtcGshwwmBiYBQqNyMHAwDAYDVR0TAQH/BAIwADALBgNVHQ8EBAMCBeAw
EwYDVR0lBAwwCgYIKwYBBQUHAwkwHQYDVR0OBBYEFBa8Bb2XUj0eGwkSzgTqEkWa
HkbrMB8GA1UdIwQYMBaAFEh7fSLWFVMN7XoURi0QtZtzs/s/MAoGCCqGSM49BAMC
A0gAMEUCIHsaA7TYZqpGZ/CQ95VrWxnuPpz1lJ2ZW9lRaGmt2VppAiEAv32ER++B
Ss8gihxv331AGfc/hWY5LURdbC1rb8tRLk0=
-----END CERTIFICATE-----
