Certificate:
    Data:
        Version: 3 (0x2)
        Serial Number: 3 (0x3)
        Signature Algorithm: ecdsa-with-SHA256
        Issuer: CN=ISEN ACI, ST=France, C=FR/emailAddress=hugo.millet@isen.yncrea.fr, O=ISEN, OU=ISEN
        Validity
            Not Before: Apr 25 17:52:20 2023 GMT
            Not After : Jul 24 17:52:20 2023 GMT
        Subject: CN=hugo/emailAddress=hugo.millet@isen.yncrea.fr
        Subject Public Key Info:
            Public Key Algorithm: id-ecPublicKey
                Public-Key: (384 bit)
                pub:
                    04:9f:7a:1d:60:50:c7:f0:76:73:49:47:45:f2:7b:
                    41:08:0c:79:aa:c2:42:9e:a3:ad:3b:2a:a2:fd:94:
                    05:c2:8b:fd:14:08:8e:28:86:1c:58:9b:22:22:46:
                    0b:62:2e:f3:55:46:f1:75:9e:f1:e3:87:03:ea:16:
                    17:de:3e:45:e0:68:4e:ed:36:63:f4:32:b8:9b:d5:
                    e8:76:cd:bf:80:eb:f5:13:8e:fe:62:64:bb:b8:32:
                    3d:aa:1c:40:3e:16:5a
                ASN1 OID: secp384r1
                NIST CURVE: P-384
        X509v3 extensions:
            X509v3 Basic Constraints: critical
                CA:FALSE
            X509v3 Subject Key Identifier: 
                1C:19:EE:6E:25:6D:E3:16:43:AF:DC:22:00:F9:F9:B0:11:49:9F:66
            X509v3 Authority Key Identifier: 
                A7:3F:E2:AF:E8:CB:BF:F0:A3:26:B7:4E:5E:E7:64:0F:34:05:DF:41
    Signature Algorithm: ecdsa-with-SHA256
    Signature Value:
        30:65:02:31:00:8b:5f:ee:37:43:0f:6b:15:70:56:32:df:49:
        86:e1:5c:91:4a:99:50:50:de:eb:63:c5:4a:74:28:1e:cd:f7:
        b3:00:4c:20:82:5e:a5:13:e9:43:99:21:16:b2:cd:f6:56:02:
        30:3b:ee:03:29:7f:5f:fd:e0:15:f3:b7:21:3a:26:3d:e5:94:
        31:96:b3:54:33:72:07:29:0c:fd:74:35:c9:72:0f:ff:8e:87:
        ed:03:34:4a:d0:e5:8a:29:dd:e2:c0:c5:f1
-----BEGIN CERTIFICATE-----
MIICMDCCAbagAwIBAgIBAzAKBggqhkjOPQQDAjB6MREwDwYDVQQDDAhJU0VOIEFD
STEPMA0GA1UECAwGRnJhbmNlMQswCQYDVQQGEwJGUjEpMCcGCSqGSIb3DQEJARYa
aHVnby5taWxsZXRAaXNlbi55bmNyZWEuZnIxDTALBgNVBAoMBElTRU4xDTALBgNV
BAsMBElTRU4wHhcNMjMwNDI1MTc1MjIwWhcNMjMwNzI0MTc1MjIwWjA6MQ0wCwYD
VQQDDARodWdvMSkwJwYJKoZIhvcNAQkBFhpodWdvLm1pbGxldEBpc2VuLnluY3Jl
YS5mcjB2MBAGByqGSM49AgEGBSuBBAAiA2IABJ96HWBQx/B2c0lHRfJ7QQgMearC
Qp6jrTsqov2UBcKL/RQIjiiGHFibIiJGC2Iu81VG8XWe8eOHA+oWF94+ReBoTu02
Y/QyuJvV6HbNv4Dr9ROO/mJku7gyPaocQD4WWqNQME4wDAYDVR0TAQH/BAIwADAd
BgNVHQ4EFgQUHBnubiVt4xZDr9wiAPn5sBFJn2YwHwYDVR0jBBgwFoAUpz/ir+jL
v/CjJrdOXudkDzQF30EwCgYIKoZIzj0EAwIDaAAwZQIxAItf7jdDD2sVcFYy30mG
4VyRSplQUN7rY8VKdCgezfezAEwggl6lE+lDmSEWss32VgIwO+4DKX9f/eAV87ch
OiY95ZQxlrNUM3IHKQz9dDXJcg//joftAzRK0OWKKd3iwMXx
-----END CERTIFICATE-----
