Certificate:
    Data:
        Version: 3 (0x2)
        Serial Number: 3 (0x3)
        Signature Algorithm: ecdsa-with-SHA256
        Issuer: CN=ISEN ACI, ST=France, C=FR/emailAddress=hugo.millet@isen.yncrea.fr, O=ISEN, OU=ISEN
        Validity
            Not Before: Apr 27 17:58:50 2023 GMT
            Not After : Jul 26 17:58:50 2023 GMT
        Subject: CN=hugo/emailAddress=hugo.millet@isen.yncrea.fr
        Subject Public Key Info:
            Public Key Algorithm: id-ecPublicKey
                Public-Key: (384 bit)
                pub:
                    04:9f:7a:1d:60:50:c7:f0:76:73:49:47:45:f2:7b:
                    41:08:0c:79:aa:c2:42:9e:a3:ad:3b:2a:a2:fd:94:
                    05:c2:8b:fd:14:08:8e:28:86:1c:58:9b:22:22:46:
                    0b:62:2e:f3:55:46:f1:75:9e:f1:e3:87:03:ea:16:
                    17:de:3e:45:e0:68:4e:ed:36:63:f4:32:b8:9b:d5:
                    e8:76:cd:bf:80:eb:f5:13:8e:fe:62:64:bb:b8:32:
                    3d:aa:1c:40:3e:16:5a
                ASN1 OID: secp384r1
                NIST CURVE: P-384
        X509v3 extensions:
            X509v3 Basic Constraints: critical
                CA:FALSE
            X509v3 Subject Key Identifier: 
                1C:19:EE:6E:25:6D:E3:16:43:AF:DC:22:00:F9:F9:B0:11:49:9F:66
            X509v3 Authority Key Identifier: 
                C2:55:ED:FE:A2:CC:4A:D8:E4:3A:17:85:9A:A6:27:C5:49:B5:FC:C3
    Signature Algorithm: ecdsa-with-SHA256
    Signature Value:
        30:66:02:31:00:b1:92:d2:3e:ba:e3:fc:25:23:cd:8b:88:9b:
        bb:57:bc:ad:ba:a3:86:7f:f5:29:db:5f:a2:17:a9:5d:bb:98:
        43:21:f3:fc:8b:02:56:d2:63:08:0e:ec:c7:3c:00:dc:85:02:
        31:00:c0:60:25:b6:33:d4:5a:34:7d:ff:86:59:0d:69:79:4c:
        05:12:29:d2:01:30:8c:cb:08:3c:83:d2:7d:22:58:8e:ea:82:
        bc:f4:16:70:ca:49:d6:e4:bd:21:39:dc:63:2b
-----BEGIN CERTIFICATE-----
MIICMTCCAbagAwIBAgIBAzAKBggqhkjOPQQDAjB6MREwDwYDVQQDDAhJU0VOIEFD
STEPMA0GA1UECAwGRnJhbmNlMQswCQYDVQQGEwJGUjEpMCcGCSqGSIb3DQEJARYa
aHVnby5taWxsZXRAaXNlbi55bmNyZWEuZnIxDTALBgNVBAoMBElTRU4xDTALBgNV
BAsMBElTRU4wHhcNMjMwNDI3MTc1ODUwWhcNMjMwNzI2MTc1ODUwWjA6MQ0wCwYD
VQQDDARodWdvMSkwJwYJKoZIhvcNAQkBFhpodWdvLm1pbGxldEBpc2VuLnluY3Jl
YS5mcjB2MBAGByqGSM49AgEGBSuBBAAiA2IABJ96HWBQx/B2c0lHRfJ7QQgMearC
Qp6jrTsqov2UBcKL/RQIjiiGHFibIiJGC2Iu81VG8XWe8eOHA+oWF94+ReBoTu02
Y/QyuJvV6HbNv4Dr9ROO/mJku7gyPaocQD4WWqNQME4wDAYDVR0TAQH/BAIwADAd
BgNVHQ4EFgQUHBnubiVt4xZDr9wiAPn5sBFJn2YwHwYDVR0jBBgwFoAUwlXt/qLM
StjkOheFmqYnxUm1/MMwCgYIKoZIzj0EAwIDaQAwZgIxALGS0j664/wlI82LiJu7
V7ytuqOGf/Up21+iF6ldu5hDIfP8iwJW0mMIDuzHPADchQIxAMBgJbYz1Fo0ff+G
WQ1peUwFEinSATCMywg8g9J9IliO6oK89BZwyknW5L0hOdxjKw==
-----END CERTIFICATE-----
