Certificate:
    Data:
        Version: 3 (0x2)
        Serial Number: 3 (0x3)
        Signature Algorithm: ecdsa-with-SHA256
        Issuer: CN=ISEN ACI, ST=France, C=FR/emailAddress=hugo.millet@isen.yncrea.fr, O=ISEN, OU=ISEN
        Validity
            Not Before: Apr 30 15:48:49 2023 GMT
            Not After : Apr 29 15:48:49 2024 GMT
        Subject: CN=hugo/emailAddress=hugo.millet@isen.yncrea.fr
        Subject Public Key Info:
            Public Key Algorithm: id-ecPublicKey
                Public-Key: (256 bit)
                pub:
                    04:20:e1:e0:21:24:8b:25:b3:80:b9:a2:2e:c7:3f:
                    f4:e9:de:fe:ec:bd:9f:5e:91:bf:98:4b:2a:d9:5a:
                    ee:d6:66:ce:39:a2:b0:9b:ea:bf:eb:f0:fa:d9:c9:
                    67:04:01:75:a1:2f:88:3e:08:77:d1:49:86:b6:b9:
                    64:32:81:fe:11
                ASN1 OID: prime256v1
                NIST CURVE: P-256
        X509v3 extensions:
            X509v3 Basic Constraints: critical
                CA:FALSE
            Authority Information Access: 
                OCSP - URI:http://127.0.0.1:8888
            X509v3 Subject Key Identifier: 
                2F:BE:E4:62:EE:B8:21:14:9C:02:24:CB:8A:7C:2F:1C:B0:42:04:B4
            X509v3 Authority Key Identifier: 
                C6:35:4C:69:A4:52:EF:7E:1F:A2:6B:06:60:3D:44:93:4A:34:19:72
    Signature Algorithm: ecdsa-with-SHA256
    Signature Value:
        30:45:02:21:00:86:fa:4b:b7:9c:f5:ab:1d:66:68:10:99:5a:
        c4:2f:ab:a4:9e:0d:42:2d:07:4b:98:fb:b4:b1:a6:b3:e0:2b:
        95:02:20:1f:f3:a3:56:ca:35:c9:e9:54:94:f8:7c:46:a5:9e:
        7b:79:89:e1:31:f9:97:e1:1d:d8:25:59:d7:55:34:b4:8a
-----BEGIN CERTIFICATE-----
MIICKDCCAc6gAwIBAgIBAzAKBggqhkjOPQQDAjB6MREwDwYDVQQDDAhJU0VOIEFD
STEPMA0GA1UECAwGRnJhbmNlMQswCQYDVQQGEwJGUjEpMCcGCSqGSIb3DQEJARYa
aHVnby5taWxsZXRAaXNlbi55bmNyZWEuZnIxDTALBgNVBAoMBElTRU4xDTALBgNV
BAsMBElTRU4wHhcNMjMwNDMwMTU0ODQ5WhcNMjQwNDI5MTU0ODQ5WjA6MQ0wCwYD
VQQDDARodWdvMSkwJwYJKoZIhvcNAQkBFhpodWdvLm1pbGxldEBpc2VuLnluY3Jl
YS5mcjBZMBMGByqGSM49AgEGCCqGSM49AwEHA0IABCDh4CEkiyWzgLmiLsc/9One
/uy9n16Rv5hLKtla7tZmzjmisJvqv+vw+tnJZwQBdaEviD4Id9FJhra5ZDKB/hGj
gYQwgYEwDAYDVR0TAQH/BAIwADAxBggrBgEFBQcBAQQlMCMwIQYIKwYBBQUHMAGG
FWh0dHA6Ly8xMjcuMC4wLjE6ODg4ODAdBgNVHQ4EFgQUL77kYu64IRScAiTLinwv
HLBCBLQwHwYDVR0jBBgwFoAUxjVMaaRS734fomsGYD1Ek0o0GXIwCgYIKoZIzj0E
AwIDSAAwRQIhAIb6S7ec9asdZmgQmVrEL6ukng1CLQdLmPu0saaz4CuVAiAf86NW
yjXJ6VSU+HxGpZ57eYnhMfmX4R3YJVnXVTS0ig==
-----END CERTIFICATE-----
