Certificate:
    Data:
        Version: 3 (0x2)
        Serial Number: 4 (0x4)
        Signature Algorithm: ecdsa-with-SHA256
        Issuer: CN=ISEN ACI, ST=France, C=FR/emailAddress=hugo.millet@isen.yncrea.fr, O=ISEN, OU=ISEN
        Validity
            Not Before: Apr 28 13:41:38 2023 GMT
            Not After : Jul 27 13:41:38 2023 GMT
        Subject: CN=hugo/emailAddress=hugo.millet@isen.yncrea.fr
        Subject Public Key Info:
            Public Key Algorithm: id-ecPublicKey
                Public-Key: (384 bit)
                pub:
                    04:9f:7a:1d:60:50:c7:f0:76:73:49:47:45:f2:7b:
                    41:08:0c:79:aa:c2:42:9e:a3:ad:3b:2a:a2:fd:94:
                    05:c2:8b:fd:14:08:8e:28:86:1c:58:9b:22:22:46:
                    0b:62:2e:f3:55:46:f1:75:9e:f1:e3:87:03:ea:16:
                    17:de:3e:45:e0:68:4e:ed:36:63:f4:32:b8:9b:d5:
                    e8:76:cd:bf:80:eb:f5:13:8e:fe:62:64:bb:b8:32:
                    3d:aa:1c:40:3e:16:5a
                ASN1 OID: secp384r1
                NIST CURVE: P-384
        X509v3 extensions:
            X509v3 Basic Constraints: critical
                CA:FALSE
            X509v3 Subject Key Identifier: 
                1C:19:EE:6E:25:6D:E3:16:43:AF:DC:22:00:F9:F9:B0:11:49:9F:66
            X509v3 Authority Key Identifier: 
                68:67:11:CD:F3:D7:1E:22:49:58:B9:4A:20:4F:9E:9D:B9:04:7D:69
    Signature Algorithm: ecdsa-with-SHA256
    Signature Value:
        30:65:02:31:00:b8:e6:0d:20:be:3f:cc:1d:b9:99:85:96:0b:
        91:dd:c5:c3:e2:3b:ef:fb:27:f1:9f:b1:c5:ed:87:4f:ae:55:
        a5:b5:aa:4a:5e:33:f7:79:6f:94:25:7e:36:94:38:49:26:02:
        30:57:e1:62:16:9e:98:9e:57:a1:07:48:58:23:8c:0e:f8:2e:
        f2:29:3f:cb:32:73:f7:12:33:f4:c6:9b:ef:14:60:41:df:ca:
        3f:b7:2d:38:a1:d8:1e:32:33:07:fd:4f:f9
-----BEGIN CERTIFICATE-----
MIICMDCCAbagAwIBAgIBBDAKBggqhkjOPQQDAjB6MREwDwYDVQQDDAhJU0VOIEFD
STEPMA0GA1UECAwGRnJhbmNlMQswCQYDVQQGEwJGUjEpMCcGCSqGSIb3DQEJARYa
aHVnby5taWxsZXRAaXNlbi55bmNyZWEuZnIxDTALBgNVBAoMBElTRU4xDTALBgNV
BAsMBElTRU4wHhcNMjMwNDI4MTM0MTM4WhcNMjMwNzI3MTM0MTM4WjA6MQ0wCwYD
VQQDDARodWdvMSkwJwYJKoZIhvcNAQkBFhpodWdvLm1pbGxldEBpc2VuLnluY3Jl
YS5mcjB2MBAGByqGSM49AgEGBSuBBAAiA2IABJ96HWBQx/B2c0lHRfJ7QQgMearC
Qp6jrTsqov2UBcKL/RQIjiiGHFibIiJGC2Iu81VG8XWe8eOHA+oWF94+ReBoTu02
Y/QyuJvV6HbNv4Dr9ROO/mJku7gyPaocQD4WWqNQME4wDAYDVR0TAQH/BAIwADAd
BgNVHQ4EFgQUHBnubiVt4xZDr9wiAPn5sBFJn2YwHwYDVR0jBBgwFoAUaGcRzfPX
HiJJWLlKIE+enbkEfWkwCgYIKoZIzj0EAwIDaAAwZQIxALjmDSC+P8wduZmFlguR
3cXD4jvv+yfxn7HF7YdPrlWltapKXjP3eW+UJX42lDhJJgIwV+FiFp6YnlehB0hY
I4wO+C7yKT/LMnP3EjP0xpvvFGBB38o/ty04odgeMjMH/U/5
-----END CERTIFICATE-----
