Certificate:
    Data:
        Version: 3 (0x2)
        Serial Number: 4 (0x4)
        Signature Algorithm: ecdsa-with-SHA256
        Issuer: CN=ISEN ACI, ST=France, C=FR/emailAddress=hugo.millet@isen.yncrea.fr, O=ISEN, OU=ISEN
        Validity
            Not Before: Apr 30 14:27:14 2023 GMT
            Not After : Jul 29 14:27:14 2023 GMT
        Subject: CN=hugo/emailAddress=hugo.millet@isen.yncrea.fr
        Subject Public Key Info:
            Public Key Algorithm: id-ecPublicKey
                Public-Key: (384 bit)
                pub:
                    04:9f:7a:1d:60:50:c7:f0:76:73:49:47:45:f2:7b:
                    41:08:0c:79:aa:c2:42:9e:a3:ad:3b:2a:a2:fd:94:
                    05:c2:8b:fd:14:08:8e:28:86:1c:58:9b:22:22:46:
                    0b:62:2e:f3:55:46:f1:75:9e:f1:e3:87:03:ea:16:
                    17:de:3e:45:e0:68:4e:ed:36:63:f4:32:b8:9b:d5:
                    e8:76:cd:bf:80:eb:f5:13:8e:fe:62:64:bb:b8:32:
                    3d:aa:1c:40:3e:16:5a
                ASN1 OID: secp384r1
                NIST CURVE: P-384
        X509v3 extensions:
            X509v3 Basic Constraints: critical
                CA:FALSE
            Authority Information Access: 
                OCSP - URI:http://127.0.0.1:8888
            X509v3 Subject Key Identifier: 
                1C:19:EE:6E:25:6D:E3:16:43:AF:DC:22:00:F9:F9:B0:11:49:9F:66
            X509v3 Authority Key Identifier: 
                A6:DD:9E:7D:56:00:50:DD:E2:2C:B7:2C:34:0B:E3:BE:E9:BB:EE:4C
    Signature Algorithm: ecdsa-with-SHA256
    Signature Value:
        30:64:02:30:77:93:15:b7:13:0a:8e:ab:29:5b:a1:79:16:b8:
        75:79:1e:51:15:63:6c:e2:60:0b:45:1c:47:74:72:56:99:10:
        53:96:fb:b2:85:26:9c:8c:b2:7d:a8:69:e3:fe:32:e3:02:30:
        08:a0:fd:5e:0f:63:00:26:ba:36:41:57:f4:9e:75:27:da:84:
        51:cc:ac:2d:34:ed:ce:7a:45:05:07:bf:f1:cb:5c:68:0b:a2:
        f9:e6:67:3c:f3:5d:58:ac:d1:57:47:cc
-----BEGIN CERTIFICATE-----
MIICZDCCAeugAwIBAgIBBDAKBggqhkjOPQQDAjB6MREwDwYDVQQDDAhJU0VOIEFD
STEPMA0GA1UECAwGRnJhbmNlMQswCQYDVQQGEwJGUjEpMCcGCSqGSIb3DQEJARYa
aHVnby5taWxsZXRAaXNlbi55bmNyZWEuZnIxDTALBgNVBAoMBElTRU4xDTALBgNV
BAsMBElTRU4wHhcNMjMwNDMwMTQyNzE0WhcNMjMwNzI5MTQyNzE0WjA6MQ0wCwYD
VQQDDARodWdvMSkwJwYJKoZIhvcNAQkBFhpodWdvLm1pbGxldEBpc2VuLnluY3Jl
YS5mcjB2MBAGByqGSM49AgEGBSuBBAAiA2IABJ96HWBQx/B2c0lHRfJ7QQgMearC
Qp6jrTsqov2UBcKL/RQIjiiGHFibIiJGC2Iu81VG8XWe8eOHA+oWF94+ReBoTu02
Y/QyuJvV6HbNv4Dr9ROO/mJku7gyPaocQD4WWqOBhDCBgTAMBgNVHRMBAf8EAjAA
MDEGCCsGAQUFBwEBBCUwIzAhBggrBgEFBQcwAYYVaHR0cDovLzEyNy4wLjAuMTo4
ODg4MB0GA1UdDgQWBBQcGe5uJW3jFkOv3CIA+fmwEUmfZjAfBgNVHSMEGDAWgBSm
3Z59VgBQ3eIstyw0C+O+6bvuTDAKBggqhkjOPQQDAgNnADBkAjB3kxW3EwqOqylb
oXkWuHV5HlEVY2ziYAtFHEd0claZEFOW+7KFJpyMsn2oaeP+MuMCMAig/V4PYwAm
ujZBV/SedSfahFHMrC007c56RQUHv/HLXGgLovnmZzzzXVis0VdHzA==
-----END CERTIFICATE-----
