Certificate:
    Data:
        Version: 3 (0x2)
        Serial Number: 4 (0x4)
        Signature Algorithm: ecdsa-with-SHA256
        Issuer: CN=ISEN ACI, ST=France, C=FR/emailAddress=hugo.millet@isen.yncrea.fr, O=ISEN, OU=ISEN
        Validity
            Not Before: Apr 25 17:53:12 2023 GMT
            Not After : Jul 24 17:53:12 2023 GMT
        Subject: CN=hugo/emailAddress=hugo.millet@isen.yncrea.fr
        Subject Public Key Info:
            Public Key Algorithm: id-ecPublicKey
                Public-Key: (384 bit)
                pub:
                    04:9f:7a:1d:60:50:c7:f0:76:73:49:47:45:f2:7b:
                    41:08:0c:79:aa:c2:42:9e:a3:ad:3b:2a:a2:fd:94:
                    05:c2:8b:fd:14:08:8e:28:86:1c:58:9b:22:22:46:
                    0b:62:2e:f3:55:46:f1:75:9e:f1:e3:87:03:ea:16:
                    17:de:3e:45:e0:68:4e:ed:36:63:f4:32:b8:9b:d5:
                    e8:76:cd:bf:80:eb:f5:13:8e:fe:62:64:bb:b8:32:
                    3d:aa:1c:40:3e:16:5a
                ASN1 OID: secp384r1
                NIST CURVE: P-384
        X509v3 extensions:
            X509v3 Basic Constraints: critical
                CA:FALSE
            X509v3 Subject Key Identifier: 
                1C:19:EE:6E:25:6D:E3:16:43:AF:DC:22:00:F9:F9:B0:11:49:9F:66
            X509v3 Authority Key Identifier: 
                A7:3F:E2:AF:E8:CB:BF:F0:A3:26:B7:4E:5E:E7:64:0F:34:05:DF:41
    Signature Algorithm: ecdsa-with-SHA256
    Signature Value:
        30:66:02:31:00:c3:06:40:9a:6e:66:4e:c0:56:f6:b2:3d:45:
        32:51:d4:6f:9c:60:83:fb:e5:0a:79:b1:2f:53:ed:fb:1b:58:
        03:cd:e2:bf:73:b2:be:31:40:04:02:10:02:18:58:2a:92:02:
        31:00:e0:08:23:f5:49:f9:9e:4d:d3:0f:81:d6:12:7f:76:8e:
        90:6d:be:4a:e2:80:ed:eb:5b:cf:28:6a:13:c2:1d:d4:aa:6d:
        69:d0:58:70:58:65:78:b5:04:45:56:bf:50:f4
-----BEGIN CERTIFICATE-----
MIICMTCCAbagAwIBAgIBBDAKBggqhkjOPQQDAjB6MREwDwYDVQQDDAhJU0VOIEFD
STEPMA0GA1UECAwGRnJhbmNlMQswCQYDVQQGEwJGUjEpMCcGCSqGSIb3DQEJARYa
aHVnby5taWxsZXRAaXNlbi55bmNyZWEuZnIxDTALBgNVBAoMBElTRU4xDTALBgNV
BAsMBElTRU4wHhcNMjMwNDI1MTc1MzEyWhcNMjMwNzI0MTc1MzEyWjA6MQ0wCwYD
VQQDDARodWdvMSkwJwYJKoZIhvcNAQkBFhpodWdvLm1pbGxldEBpc2VuLnluY3Jl
YS5mcjB2MBAGByqGSM49AgEGBSuBBAAiA2IABJ96HWBQx/B2c0lHRfJ7QQgMearC
Qp6jrTsqov2UBcKL/RQIjiiGHFibIiJGC2Iu81VG8XWe8eOHA+oWF94+ReBoTu02
Y/QyuJvV6HbNv4Dr9ROO/mJku7gyPaocQD4WWqNQME4wDAYDVR0TAQH/BAIwADAd
BgNVHQ4EFgQUHBnubiVt4xZDr9wiAPn5sBFJn2YwHwYDVR0jBBgwFoAUpz/ir+jL
v/CjJrdOXudkDzQF30EwCgYIKoZIzj0EAwIDaQAwZgIxAMMGQJpuZk7AVvayPUUy
UdRvnGCD++UKebEvU+37G1gDzeK/c7K+MUAEAhACGFgqkgIxAOAII/VJ+Z5N0w+B
1hJ/do6Qbb5K4oDt61vPKGoTwh3Uqm1p0FhwWGV4tQRFVr9Q9A==
-----END CERTIFICATE-----
