Certificate:
    Data:
        Version: 3 (0x2)
        Serial Number: 4 (0x4)
        Signature Algorithm: ecdsa-with-SHA256
        Issuer: CN=ISEN ACI, ST=France, C=FR/emailAddress=hugo.millet@isen.yncrea.fr, O=ISEN, OU=ISEN
        Validity
            Not Before: Apr 28 14:50:54 2023 GMT
            Not After : Jul 27 14:50:54 2023 GMT
        Subject: CN=hugo/emailAddress=hugo.millet@isen.yncrea.fr
        Subject Public Key Info:
            Public Key Algorithm: id-ecPublicKey
                Public-Key: (384 bit)
                pub:
                    04:9f:7a:1d:60:50:c7:f0:76:73:49:47:45:f2:7b:
                    41:08:0c:79:aa:c2:42:9e:a3:ad:3b:2a:a2:fd:94:
                    05:c2:8b:fd:14:08:8e:28:86:1c:58:9b:22:22:46:
                    0b:62:2e:f3:55:46:f1:75:9e:f1:e3:87:03:ea:16:
                    17:de:3e:45:e0:68:4e:ed:36:63:f4:32:b8:9b:d5:
                    e8:76:cd:bf:80:eb:f5:13:8e:fe:62:64:bb:b8:32:
                    3d:aa:1c:40:3e:16:5a
                ASN1 OID: secp384r1
                NIST CURVE: P-384
        X509v3 extensions:
            X509v3 Basic Constraints: critical
                CA:FALSE
            Authority Information Access: 
                OCSP - URI:http://127.0.0.1:8888
            X509v3 Subject Key Identifier: 
                1C:19:EE:6E:25:6D:E3:16:43:AF:DC:22:00:F9:F9:B0:11:49:9F:66
            X509v3 Authority Key Identifier: 
                F1:46:B3:95:98:78:9E:CA:B2:A7:22:B7:37:CC:07:7E:A7:9D:A4:4A
    Signature Algorithm: ecdsa-with-SHA256
    Signature Value:
        30:64:02:30:0f:f6:d2:48:29:ef:fd:cc:0c:db:39:e1:20:62:
        1c:eb:9a:73:fc:83:40:44:02:65:4c:45:a6:a6:06:20:7a:d6:
        b7:c0:48:1e:93:2a:90:0f:e7:47:22:62:1e:95:c3:b7:02:30:
        3b:a0:d1:bb:38:9a:6f:3d:d9:37:21:d1:4c:58:3c:81:0f:89:
        a9:54:69:f0:11:60:3e:49:3e:73:d0:6a:71:a7:e6:aa:10:07:
        b8:8d:5c:da:d6:df:29:1f:44:9a:7b:93
-----BEGIN CERTIFICATE-----
MIICZDCCAeugAwIBAgIBBDAKBggqhkjOPQQDAjB6MREwDwYDVQQDDAhJU0VOIEFD
STEPMA0GA1UECAwGRnJhbmNlMQswCQYDVQQGEwJGUjEpMCcGCSqGSIb3DQEJARYa
aHVnby5taWxsZXRAaXNlbi55bmNyZWEuZnIxDTALBgNVBAoMBElTRU4xDTALBgNV
BAsMBElTRU4wHhcNMjMwNDI4MTQ1MDU0WhcNMjMwNzI3MTQ1MDU0WjA6MQ0wCwYD
VQQDDARodWdvMSkwJwYJKoZIhvcNAQkBFhpodWdvLm1pbGxldEBpc2VuLnluY3Jl
YS5mcjB2MBAGByqGSM49AgEGBSuBBAAiA2IABJ96HWBQx/B2c0lHRfJ7QQgMearC
Qp6jrTsqov2UBcKL/RQIjiiGHFibIiJGC2Iu81VG8XWe8eOHA+oWF94+ReBoTu02
Y/QyuJvV6HbNv4Dr9ROO/mJku7gyPaocQD4WWqOBhDCBgTAMBgNVHRMBAf8EAjAA
MDEGCCsGAQUFBwEBBCUwIzAhBggrBgEFBQcwAYYVaHR0cDovLzEyNy4wLjAuMTo4
ODg4MB0GA1UdDgQWBBQcGe5uJW3jFkOv3CIA+fmwEUmfZjAfBgNVHSMEGDAWgBTx
RrOVmHieyrKnIrc3zAd+p52kSjAKBggqhkjOPQQDAgNnADBkAjAP9tJIKe/9zAzb
OeEgYhzrmnP8g0BEAmVMRaamBiB61rfASB6TKpAP50ciYh6Vw7cCMDug0bs4mm89
2Tch0UxYPIEPialUafARYD5JPnPQanGn5qoQB7iNXNrW3ykfRJp7kw==
-----END CERTIFICATE-----
