Certificate:
    Data:
        Version: 3 (0x2)
        Serial Number: 5 (0x5)
        Signature Algorithm: ecdsa-with-SHA256
        Issuer: CN=ISEN ACI, ST=France, C=FR/emailAddress=hugo.millet@isen.yncrea.fr, O=ISEN, OU=ISEN
        Validity
            Not Before: Apr 28 14:55:54 2023 GMT
            Not After : Jul 27 14:55:54 2023 GMT
        Subject: CN=hugo/emailAddress=hugo.millet@isen.yncrea.fr
        Subject Public Key Info:
            Public Key Algorithm: id-ecPublicKey
                Public-Key: (384 bit)
                pub:
                    04:9f:7a:1d:60:50:c7:f0:76:73:49:47:45:f2:7b:
                    41:08:0c:79:aa:c2:42:9e:a3:ad:3b:2a:a2:fd:94:
                    05:c2:8b:fd:14:08:8e:28:86:1c:58:9b:22:22:46:
                    0b:62:2e:f3:55:46:f1:75:9e:f1:e3:87:03:ea:16:
                    17:de:3e:45:e0:68:4e:ed:36:63:f4:32:b8:9b:d5:
                    e8:76:cd:bf:80:eb:f5:13:8e:fe:62:64:bb:b8:32:
                    3d:aa:1c:40:3e:16:5a
                ASN1 OID: secp384r1
                NIST CURVE: P-384
        X509v3 extensions:
            X509v3 Basic Constraints: critical
                CA:FALSE
            Authority Information Access: 
                OCSP - URI:http://127.0.0.1:8888
            X509v3 Subject Key Identifier: 
                1C:19:EE:6E:25:6D:E3:16:43:AF:DC:22:00:F9:F9:B0:11:49:9F:66
            X509v3 Authority Key Identifier: 
                F1:46:B3:95:98:78:9E:CA:B2:A7:22:B7:37:CC:07:7E:A7:9D:A4:4A
    Signature Algorithm: ecdsa-with-SHA256
    Signature Value:
        30:66:02:31:00:f0:bc:dc:04:69:e3:4b:f7:7f:36:65:54:a6:
        fb:17:3f:d0:48:05:18:4d:8b:57:cd:93:37:f4:f1:61:f7:cf:
        19:19:90:f6:a0:6d:0e:19:3f:4f:c5:84:21:94:ab:88:69:02:
        31:00:b5:7b:af:87:f4:18:05:3d:fc:6a:67:89:7f:79:e8:be:
        6d:8f:3e:94:bd:fa:b3:66:6c:74:44:c1:fd:85:ff:e2:27:8e:
        85:81:6c:bd:85:9c:7a:ad:ac:b6:e3:fd:d3:37
-----BEGIN CERTIFICATE-----
MIICZjCCAeugAwIBAgIBBTAKBggqhkjOPQQDAjB6MREwDwYDVQQDDAhJU0VOIEFD
STEPMA0GA1UECAwGRnJhbmNlMQswCQYDVQQGEwJGUjEpMCcGCSqGSIb3DQEJARYa
aHVnby5taWxsZXRAaXNlbi55bmNyZWEuZnIxDTALBgNVBAoMBElTRU4xDTALBgNV
BAsMBElTRU4wHhcNMjMwNDI4MTQ1NTU0WhcNMjMwNzI3MTQ1NTU0WjA6MQ0wCwYD
VQQDDARodWdvMSkwJwYJKoZIhvcNAQkBFhpodWdvLm1pbGxldEBpc2VuLnluY3Jl
YS5mcjB2MBAGByqGSM49AgEGBSuBBAAiA2IABJ96HWBQx/B2c0lHRfJ7QQgMearC
Qp6jrTsqov2UBcKL/RQIjiiGHFibIiJGC2Iu81VG8XWe8eOHA+oWF94+ReBoTu02
Y/QyuJvV6HbNv4Dr9ROO/mJku7gyPaocQD4WWqOBhDCBgTAMBgNVHRMBAf8EAjAA
MDEGCCsGAQUFBwEBBCUwIzAhBggrBgEFBQcwAYYVaHR0cDovLzEyNy4wLjAuMTo4
ODg4MB0GA1UdDgQWBBQcGe5uJW3jFkOv3CIA+fmwEUmfZjAfBgNVHSMEGDAWgBTx
RrOVmHieyrKnIrc3zAd+p52kSjAKBggqhkjOPQQDAgNpADBmAjEA8LzcBGnjS/d/
NmVUpvsXP9BIBRhNi1fNkzf08WH3zxkZkPagbQ4ZP0/FhCGUq4hpAjEAtXuvh/QY
BT38ameJf3novm2PPpS9+rNmbHREwf2F/+InjoWBbL2FnHqtrLbj/dM3
-----END CERTIFICATE-----
