Certificate:
    Data:
        Version: 3 (0x2)
        Serial Number: 5 (0x5)
        Signature Algorithm: ecdsa-with-SHA256
        Issuer: CN=ISEN ACI, ST=France, C=FR/emailAddress=hugo.millet@isen.yncrea.fr, O=ISEN, OU=ISEN
        Validity
            Not Before: Apr 28 13:42:31 2023 GMT
            Not After : Jul 27 13:42:31 2023 GMT
        Subject: CN=hugo/emailAddress=hugo.millet@isen.yncrea.fr
        Subject Public Key Info:
            Public Key Algorithm: id-ecPublicKey
                Public-Key: (384 bit)
                pub:
                    04:9f:7a:1d:60:50:c7:f0:76:73:49:47:45:f2:7b:
                    41:08:0c:79:aa:c2:42:9e:a3:ad:3b:2a:a2:fd:94:
                    05:c2:8b:fd:14:08:8e:28:86:1c:58:9b:22:22:46:
                    0b:62:2e:f3:55:46:f1:75:9e:f1:e3:87:03:ea:16:
                    17:de:3e:45:e0:68:4e:ed:36:63:f4:32:b8:9b:d5:
                    e8:76:cd:bf:80:eb:f5:13:8e:fe:62:64:bb:b8:32:
                    3d:aa:1c:40:3e:16:5a
                ASN1 OID: secp384r1
                NIST CURVE: P-384
        X509v3 extensions:
            X509v3 Basic Constraints: critical
                CA:FALSE
            X509v3 Subject Key Identifier: 
                1C:19:EE:6E:25:6D:E3:16:43:AF:DC:22:00:F9:F9:B0:11:49:9F:66
            X509v3 Authority Key Identifier: 
                68:67:11:CD:F3:D7:1E:22:49:58:B9:4A:20:4F:9E:9D:B9:04:7D:69
    Signature Algorithm: ecdsa-with-SHA256
    Signature Value:
        30:66:02:31:00:bd:70:95:db:db:d1:0b:7b:5b:30:7b:bb:cd:
        b1:e4:59:ad:57:3a:d7:51:be:0f:b9:60:f1:5e:02:a4:fc:aa:
        9f:c6:a1:64:45:2b:6f:70:c9:1a:68:02:3c:fc:be:dd:e7:02:
        31:00:8c:98:6e:75:9e:9a:55:54:a8:f3:cd:fb:3f:a9:62:87:
        97:8c:07:65:ca:81:7e:7a:10:a6:4d:2b:09:35:cb:16:b3:ba:
        0c:d1:78:90:04:5b:53:84:ee:77:aa:41:07:69
-----BEGIN CERTIFICATE-----
MIICMTCCAbagAwIBAgIBBTAKBggqhkjOPQQDAjB6MREwDwYDVQQDDAhJU0VOIEFD
STEPMA0GA1UECAwGRnJhbmNlMQswCQYDVQQGEwJGUjEpMCcGCSqGSIb3DQEJARYa
aHVnby5taWxsZXRAaXNlbi55bmNyZWEuZnIxDTALBgNVBAoMBElTRU4xDTALBgNV
BAsMBElTRU4wHhcNMjMwNDI4MTM0MjMxWhcNMjMwNzI3MTM0MjMxWjA6MQ0wCwYD
VQQDDARodWdvMSkwJwYJKoZIhvcNAQkBFhpodWdvLm1pbGxldEBpc2VuLnluY3Jl
YS5mcjB2MBAGByqGSM49AgEGBSuBBAAiA2IABJ96HWBQx/B2c0lHRfJ7QQgMearC
Qp6jrTsqov2UBcKL/RQIjiiGHFibIiJGC2Iu81VG8XWe8eOHA+oWF94+ReBoTu02
Y/QyuJvV6HbNv4Dr9ROO/mJku7gyPaocQD4WWqNQME4wDAYDVR0TAQH/BAIwADAd
BgNVHQ4EFgQUHBnubiVt4xZDr9wiAPn5sBFJn2YwHwYDVR0jBBgwFoAUaGcRzfPX
HiJJWLlKIE+enbkEfWkwCgYIKoZIzj0EAwIDaQAwZgIxAL1wldvb0Qt7WzB7u82x
5FmtVzrXUb4PuWDxXgKk/KqfxqFkRStvcMkaaAI8/L7d5wIxAIyYbnWemlVUqPPN
+z+pYoeXjAdlyoF+ehCmTSsJNcsWs7oM0XiQBFtThO53qkEHaQ==
-----END CERTIFICATE-----
