Certificate:
    Data:
        Version: 3 (0x2)
        Serial Number: 5 (0x5)
        Signature Algorithm: ecdsa-with-SHA256
        Issuer: CN=ISEN ACI, ST=France, C=FR/emailAddress=hugo.millet@isen.yncrea.fr, O=ISEN, OU=ISEN
        Validity
            Not Before: Apr 30 14:29:35 2023 GMT
            Not After : Jul 29 14:29:35 2023 GMT
        Subject: CN=hugo/emailAddress=hugo.millet@isen.yncrea.fr
        Subject Public Key Info:
            Public Key Algorithm: id-ecPublicKey
                Public-Key: (384 bit)
                pub:
                    04:9f:7a:1d:60:50:c7:f0:76:73:49:47:45:f2:7b:
                    41:08:0c:79:aa:c2:42:9e:a3:ad:3b:2a:a2:fd:94:
                    05:c2:8b:fd:14:08:8e:28:86:1c:58:9b:22:22:46:
                    0b:62:2e:f3:55:46:f1:75:9e:f1:e3:87:03:ea:16:
                    17:de:3e:45:e0:68:4e:ed:36:63:f4:32:b8:9b:d5:
                    e8:76:cd:bf:80:eb:f5:13:8e:fe:62:64:bb:b8:32:
                    3d:aa:1c:40:3e:16:5a
                ASN1 OID: secp384r1
                NIST CURVE: P-384
        X509v3 extensions:
            X509v3 Basic Constraints: critical
                CA:FALSE
            Authority Information Access: 
                OCSP - URI:http://127.0.0.1:8888
            X509v3 Subject Key Identifier: 
                1C:19:EE:6E:25:6D:E3:16:43:AF:DC:22:00:F9:F9:B0:11:49:9F:66
            X509v3 Authority Key Identifier: 
                A6:DD:9E:7D:56:00:50:DD:E2:2C:B7:2C:34:0B:E3:BE:E9:BB:EE:4C
    Signature Algorithm: ecdsa-with-SHA256
    Signature Value:
        30:64:02:30:3a:15:1c:82:57:65:d9:b9:c1:c7:87:73:8a:86:
        c8:4e:67:73:9e:1c:27:1a:32:74:16:c4:2b:d4:6e:ec:9f:8f:
        98:16:b7:22:3f:d5:a5:22:bf:cd:de:a3:db:b7:3e:44:02:30:
        18:de:ee:69:de:fb:a7:e3:49:53:6e:bc:af:03:ba:a2:08:91:
        61:36:56:8f:53:25:4e:c8:5d:0a:ac:03:59:5d:89:3e:bd:f1:
        2a:24:90:c3:48:73:a8:f8:28:5f:de:3f
-----BEGIN CERTIFICATE-----
MIICZDCCAeugAwIBAgIBBTAKBggqhkjOPQQDAjB6MREwDwYDVQQDDAhJU0VOIEFD
STEPMA0GA1UECAwGRnJhbmNlMQswCQYDVQQGEwJGUjEpMCcGCSqGSIb3DQEJARYa
aHVnby5taWxsZXRAaXNlbi55bmNyZWEuZnIxDTALBgNVBAoMBElTRU4xDTALBgNV
BAsMBElTRU4wHhcNMjMwNDMwMTQyOTM1WhcNMjMwNzI5MTQyOTM1WjA6MQ0wCwYD
VQQDDARodWdvMSkwJwYJKoZIhvcNAQkBFhpodWdvLm1pbGxldEBpc2VuLnluY3Jl
YS5mcjB2MBAGByqGSM49AgEGBSuBBAAiA2IABJ96HWBQx/B2c0lHRfJ7QQgMearC
Qp6jrTsqov2UBcKL/RQIjiiGHFibIiJGC2Iu81VG8XWe8eOHA+oWF94+ReBoTu02
Y/QyuJvV6HbNv4Dr9ROO/mJku7gyPaocQD4WWqOBhDCBgTAMBgNVHRMBAf8EAjAA
MDEGCCsGAQUFBwEBBCUwIzAhBggrBgEFBQcwAYYVaHR0cDovLzEyNy4wLjAuMTo4
ODg4MB0GA1UdDgQWBBQcGe5uJW3jFkOv3CIA+fmwEUmfZjAfBgNVHSMEGDAWgBSm
3Z59VgBQ3eIstyw0C+O+6bvuTDAKBggqhkjOPQQDAgNnADBkAjA6FRyCV2XZucHH
h3OKhshOZ3OeHCcaMnQWxCvUbuyfj5gWtyI/1aUiv83eo9u3PkQCMBje7mne+6fj
SVNuvK8DuqIIkWE2Vo9TJU7IXQqsA1ldiT698SokkMNIc6j4KF/ePw==
-----END CERTIFICATE-----
