Certificate:
    Data:
        Version: 3 (0x2)
        Serial Number: 6 (0x6)
        Signature Algorithm: ecdsa-with-SHA256
        Issuer: CN=ISEN ACI, ST=France, C=FR/emailAddress=hugo.millet@isen.yncrea.fr, O=ISEN, OU=ISEN
        Validity
            Not Before: Apr 30 14:32:37 2023 GMT
            Not After : Jul 29 14:32:37 2023 GMT
        Subject: CN=hugo/emailAddress=hugo.millet@isen.yncrea.fr
        Subject Public Key Info:
            Public Key Algorithm: id-ecPublicKey
                Public-Key: (384 bit)
                pub:
                    04:9f:7a:1d:60:50:c7:f0:76:73:49:47:45:f2:7b:
                    41:08:0c:79:aa:c2:42:9e:a3:ad:3b:2a:a2:fd:94:
                    05:c2:8b:fd:14:08:8e:28:86:1c:58:9b:22:22:46:
                    0b:62:2e:f3:55:46:f1:75:9e:f1:e3:87:03:ea:16:
                    17:de:3e:45:e0:68:4e:ed:36:63:f4:32:b8:9b:d5:
                    e8:76:cd:bf:80:eb:f5:13:8e:fe:62:64:bb:b8:32:
                    3d:aa:1c:40:3e:16:5a
                ASN1 OID: secp384r1
                NIST CURVE: P-384
        X509v3 extensions:
            X509v3 Basic Constraints: critical
                CA:FALSE
            Authority Information Access: 
                OCSP - URI:http://127.0.0.1:8888
            X509v3 Subject Key Identifier: 
                1C:19:EE:6E:25:6D:E3:16:43:AF:DC:22:00:F9:F9:B0:11:49:9F:66
            X509v3 Authority Key Identifier: 
                A6:DD:9E:7D:56:00:50:DD:E2:2C:B7:2C:34:0B:E3:BE:E9:BB:EE:4C
    Signature Algorithm: ecdsa-with-SHA256
    Signature Value:
        30:66:02:31:00:82:a5:32:1a:7c:e1:3f:e0:01:6a:9f:e5:dc:
        de:a5:d3:a9:7d:68:1d:55:c4:3b:03:0d:18:79:f7:b3:dd:f0:
        02:3d:a2:91:47:57:3f:5c:69:0a:33:e0:c7:27:ad:6b:9e:02:
        31:00:a1:e9:f4:82:22:6b:7f:3c:30:4f:c4:62:e7:3b:d9:ec:
        bf:7c:7b:d4:63:37:88:60:c0:da:28:36:82:d0:d2:4a:2c:9c:
        43:27:36:f4:51:1b:de:87:38:cf:25:a2:ea:86
-----BEGIN CERTIFICATE-----
MIICZjCCAeugAwIBAgIBBjAKBggqhkjOPQQDAjB6MREwDwYDVQQDDAhJU0VOIEFD
STEPMA0GA1UECAwGRnJhbmNlMQswCQYDVQQGEwJGUjEpMCcGCSqGSIb3DQEJARYa
aHVnby5taWxsZXRAaXNlbi55bmNyZWEuZnIxDTALBgNVBAoMBElTRU4xDTALBgNV
BAsMBElTRU4wHhcNMjMwNDMwMTQzMjM3WhcNMjMwNzI5MTQzMjM3WjA6MQ0wCwYD
VQQDDARodWdvMSkwJwYJKoZIhvcNAQkBFhpodWdvLm1pbGxldEBpc2VuLnluY3Jl
YS5mcjB2MBAGByqGSM49AgEGBSuBBAAiA2IABJ96HWBQx/B2c0lHRfJ7QQgMearC
Qp6jrTsqov2UBcKL/RQIjiiGHFibIiJGC2Iu81VG8XWe8eOHA+oWF94+ReBoTu02
Y/QyuJvV6HbNv4Dr9ROO/mJku7gyPaocQD4WWqOBhDCBgTAMBgNVHRMBAf8EAjAA
MDEGCCsGAQUFBwEBBCUwIzAhBggrBgEFBQcwAYYVaHR0cDovLzEyNy4wLjAuMTo4
ODg4MB0GA1UdDgQWBBQcGe5uJW3jFkOv3CIA+fmwEUmfZjAfBgNVHSMEGDAWgBSm
3Z59VgBQ3eIstyw0C+O+6bvuTDAKBggqhkjOPQQDAgNpADBmAjEAgqUyGnzhP+AB
ap/l3N6l06l9aB1VxDsDDRh597Pd8AI9opFHVz9caQoz4McnrWueAjEAoen0giJr
fzwwT8Ri5zvZ7L98e9RjN4hgwNooNoLQ0kosnEMnNvRRG96HOM8louqG
-----END CERTIFICATE-----
