Certificate:
    Data:
        Version: 3 (0x2)
        Serial Number: 6 (0x6)
        Signature Algorithm: ecdsa-with-SHA256
        Issuer: CN=ISEN ACI, ST=France, C=FR/emailAddress=hugo.millet@isen.yncrea.fr, O=ISEN, OU=ISEN
        Validity
            Not Before: Apr 28 18:33:07 2023 GMT
            Not After : Jul 27 18:33:07 2023 GMT
        Subject: CN=hugo/emailAddress=hugo.millet@isen.yncrea.fr
        Subject Public Key Info:
            Public Key Algorithm: id-ecPublicKey
                Public-Key: (384 bit)
                pub:
                    04:9f:7a:1d:60:50:c7:f0:76:73:49:47:45:f2:7b:
                    41:08:0c:79:aa:c2:42:9e:a3:ad:3b:2a:a2:fd:94:
                    05:c2:8b:fd:14:08:8e:28:86:1c:58:9b:22:22:46:
                    0b:62:2e:f3:55:46:f1:75:9e:f1:e3:87:03:ea:16:
                    17:de:3e:45:e0:68:4e:ed:36:63:f4:32:b8:9b:d5:
                    e8:76:cd:bf:80:eb:f5:13:8e:fe:62:64:bb:b8:32:
                    3d:aa:1c:40:3e:16:5a
                ASN1 OID: secp384r1
                NIST CURVE: P-384
        X509v3 extensions:
            X509v3 Basic Constraints: critical
                CA:FALSE
            Authority Information Access: 
                OCSP - URI:http://127.0.0.1:8888
            X509v3 Subject Key Identifier: 
                1C:19:EE:6E:25:6D:E3:16:43:AF:DC:22:00:F9:F9:B0:11:49:9F:66
            X509v3 Authority Key Identifier: 
                F1:46:B3:95:98:78:9E:CA:B2:A7:22:B7:37:CC:07:7E:A7:9D:A4:4A
    Signature Algorithm: ecdsa-with-SHA256
    Signature Value:
        30:65:02:30:5f:54:33:d0:e9:9c:aa:7a:d7:05:0c:9f:f5:56:
        cb:7e:62:d4:01:ac:d9:5c:21:e4:13:f8:63:bc:a8:45:f0:c2:
        18:3a:56:b2:38:3d:a2:3d:07:98:55:ee:1b:da:0f:5c:02:31:
        00:c9:c9:d6:8e:53:98:9e:e2:d5:4c:21:73:3f:ee:96:04:c1:
        97:ad:1d:c5:54:46:c1:1f:3f:94:6a:cb:05:62:de:88:71:df:
        82:33:77:4e:55:cd:67:21:11:9c:67:cf:94
-----BEGIN CERTIFICATE-----
MIICZTCCAeugAwIBAgIBBjAKBggqhkjOPQQDAjB6MREwDwYDVQQDDAhJU0VOIEFD
STEPMA0GA1UECAwGRnJhbmNlMQswCQYDVQQGEwJGUjEpMCcGCSqGSIb3DQEJARYa
aHVnby5taWxsZXRAaXNlbi55bmNyZWEuZnIxDTALBgNVBAoMBElTRU4xDTALBgNV
BAsMBElTRU4wHhcNMjMwNDI4MTgzMzA3WhcNMjMwNzI3MTgzMzA3WjA6MQ0wCwYD
VQQDDARodWdvMSkwJwYJKoZIhvcNAQkBFhpodWdvLm1pbGxldEBpc2VuLnluY3Jl
YS5mcjB2MBAGByqGSM49AgEGBSuBBAAiA2IABJ96HWBQx/B2c0lHRfJ7QQgMearC
Qp6jrTsqov2UBcKL/RQIjiiGHFibIiJGC2Iu81VG8XWe8eOHA+oWF94+ReBoTu02
Y/QyuJvV6HbNv4Dr9ROO/mJku7gyPaocQD4WWqOBhDCBgTAMBgNVHRMBAf8EAjAA
MDEGCCsGAQUFBwEBBCUwIzAhBggrBgEFBQcwAYYVaHR0cDovLzEyNy4wLjAuMTo4
ODg4MB0GA1UdDgQWBBQcGe5uJW3jFkOv3CIA+fmwEUmfZjAfBgNVHSMEGDAWgBTx
RrOVmHieyrKnIrc3zAd+p52kSjAKBggqhkjOPQQDAgNoADBlAjBfVDPQ6ZyqetcF
DJ/1Vst+YtQBrNlcIeQT+GO8qEXwwhg6VrI4PaI9B5hV7hvaD1wCMQDJydaOU5ie
4tVMIXM/7pYEwZetHcVURsEfP5RqywVi3ohx34Izd05VzWchEZxnz5Q=
-----END CERTIFICATE-----
