Certificate:
    Data:
        Version: 3 (0x2)
        Serial Number: 11 (0xb)
        Signature Algorithm: ecdsa-with-SHA256
        Issuer: CN=ISEN ACI, ST=France, C=FR/emailAddress=hugo.millet@isen.yncrea.fr, O=ISEN, OU=ISEN
        Validity
            Not Before: Apr 30 19:24:42 2023 GMT
            Not After : Apr 29 19:24:42 2024 GMT
        Subject: CN=hugo/emailAddress=hugo.millet@isen.yncrea.fr
        Subject Public Key Info:
            Public Key Algorithm: id-ecPublicKey
                Public-Key: (256 bit)
                pub:
                    04:20:e1:e0:21:24:8b:25:b3:80:b9:a2:2e:c7:3f:
                    f4:e9:de:fe:ec:bd:9f:5e:91:bf:98:4b:2a:d9:5a:
                    ee:d6:66:ce:39:a2:b0:9b:ea:bf:eb:f0:fa:d9:c9:
                    67:04:01:75:a1:2f:88:3e:08:77:d1:49:86:b6:b9:
                    64:32:81:fe:11
                ASN1 OID: prime256v1
                NIST CURVE: P-256
        X509v3 extensions:
            X509v3 Basic Constraints: critical
                CA:FALSE
            Authority Information Access: 
                OCSP - URI:http://127.0.0.1:8888
            X509v3 Subject Key Identifier: 
                2F:BE:E4:62:EE:B8:21:14:9C:02:24:CB:8A:7C:2F:1C:B0:42:04:B4
            X509v3 Authority Key Identifier: 
                48:7B:7D:22:D6:15:53:0D:ED:7A:14:46:2D:10:B5:9B:73:B3:FB:3F
    Signature Algorithm: ecdsa-with-SHA256
    Signature Value:
        30:45:02:21:00:d4:b5:10:5b:03:a0:cc:4f:e9:34:ea:d8:4b:
        40:a0:b5:43:1e:51:19:65:56:c3:13:39:04:a8:f8:23:2d:f6:
        5b:02:20:54:4f:79:36:cb:14:13:14:64:35:e8:3d:59:c8:39:
        f0:d9:5f:38:aa:d7:96:12:fc:d2:c0:71:0d:b4:13:41:fa
-----BEGIN CERTIFICATE-----
MIICKDCCAc6gAwIBAgIBCzAKBggqhkjOPQQDAjB6MREwDwYDVQQDDAhJU0VOIEFD
STEPMA0GA1UECAwGRnJhbmNlMQswCQYDVQQGEwJGUjEpMCcGCSqGSIb3DQEJARYa
aHVnby5taWxsZXRAaXNlbi55bmNyZWEuZnIxDTALBgNVBAoMBElTRU4xDTALBgNV
BAsMBElTRU4wHhcNMjMwNDMwMTkyNDQyWhcNMjQwNDI5MTkyNDQyWjA6MQ0wCwYD
VQQDDARodWdvMSkwJwYJKoZIhvcNAQkBFhpodWdvLm1pbGxldEBpc2VuLnluY3Jl
YS5mcjBZMBMGByqGSM49AgEGCCqGSM49AwEHA0IABCDh4CEkiyWzgLmiLsc/9One
/uy9n16Rv5hLKtla7tZmzjmisJvqv+vw+tnJZwQBdaEviD4Id9FJhra5ZDKB/hGj
gYQwgYEwDAYDVR0TAQH/BAIwADAxBggrBgEFBQcBAQQlMCMwIQYIKwYBBQUHMAGG
FWh0dHA6Ly8xMjcuMC4wLjE6ODg4ODAdBgNVHQ4EFgQUL77kYu64IRScAiTLinwv
HLBCBLQwHwYDVR0jBBgwFoAUSHt9ItYVUw3tehRGLRC1m3Oz+z8wCgYIKoZIzj0E
AwIDSAAwRQIhANS1EFsDoMxP6TTq2EtAoLVDHlEZZVbDEzkEqPgjLfZbAiBUT3k2
yxQTFGQ16D1ZyDnw2V84qteWEvzSwHENtBNB+g==
-----END CERTIFICATE-----
