Certificate:
    Data:
        Version: 3 (0x2)
        Serial Number: 19 (0x13)
        Signature Algorithm: ecdsa-with-SHA256
        Issuer: CN=ISEN ACI, ST=France, C=FR/emailAddress=hugo.millet@isen.yncrea.fr, O=ISEN, OU=ISEN
        Validity
            Not Before: Apr 30 21:55:28 2023 GMT
            Not After : Apr 29 21:55:28 2024 GMT
        Subject: CN=hugo/emailAddress=hugo.millet@isen.yncrea.fr
        Subject Public Key Info:
            Public Key Algorithm: id-ecPublicKey
                Public-Key: (256 bit)
                pub:
                    04:20:e1:e0:21:24:8b:25:b3:80:b9:a2:2e:c7:3f:
                    f4:e9:de:fe:ec:bd:9f:5e:91:bf:98:4b:2a:d9:5a:
                    ee:d6:66:ce:39:a2:b0:9b:ea:bf:eb:f0:fa:d9:c9:
                    67:04:01:75:a1:2f:88:3e:08:77:d1:49:86:b6:b9:
                    64:32:81:fe:11
                ASN1 OID: prime256v1
                NIST CURVE: P-256
        X509v3 extensions:
            X509v3 Basic Constraints: critical
                CA:FALSE
            Authority Information Access: 
                OCSP - URI:http://127.0.0.1:8888
            X509v3 Subject Key Identifier: 
                2F:BE:E4:62:EE:B8:21:14:9C:02:24:CB:8A:7C:2F:1C:B0:42:04:B4
            X509v3 Authority Key Identifier: 
                48:7B:7D:22:D6:15:53:0D:ED:7A:14:46:2D:10:B5:9B:73:B3:FB:3F
    Signature Algorithm: ecdsa-with-SHA256
    Signature Value:
        30:45:02:21:00:91:fa:1a:c4:08:ba:d6:02:c5:96:83:9a:bb:
        43:96:b3:ad:8a:e8:bf:81:90:f4:ee:74:e3:6a:e2:48:ee:50:
        d7:02:20:4b:4c:7f:1c:26:d4:bd:f3:27:e5:1a:d6:76:38:47:
        91:e8:ca:08:c1:13:02:bd:f3:d6:ec:95:33:e1:42:b1:4a
-----BEGIN CERTIFICATE-----
MIICKDCCAc6gAwIBAgIBEzAKBggqhkjOPQQDAjB6MREwDwYDVQQDDAhJU0VOIEFD
STEPMA0GA1UECAwGRnJhbmNlMQswCQYDVQQGEwJGUjEpMCcGCSqGSIb3DQEJARYa
aHVnby5taWxsZXRAaXNlbi55bmNyZWEuZnIxDTALBgNVBAoMBElTRU4xDTALBgNV
BAsMBElTRU4wHhcNMjMwNDMwMjE1NTI4WhcNMjQwNDI5MjE1NTI4WjA6MQ0wCwYD
VQQDDARodWdvMSkwJwYJKoZIhvcNAQkBFhpodWdvLm1pbGxldEBpc2VuLnluY3Jl
YS5mcjBZMBMGByqGSM49AgEGCCqGSM49AwEHA0IABCDh4CEkiyWzgLmiLsc/9One
/uy9n16Rv5hLKtla7tZmzjmisJvqv+vw+tnJZwQBdaEviD4Id9FJhra5ZDKB/hGj
gYQwgYEwDAYDVR0TAQH/BAIwADAxBggrBgEFBQcBAQQlMCMwIQYIKwYBBQUHMAGG
FWh0dHA6Ly8xMjcuMC4wLjE6ODg4ODAdBgNVHQ4EFgQUL77kYu64IRScAiTLinwv
HLBCBLQwHwYDVR0jBBgwFoAUSHt9ItYVUw3tehRGLRC1m3Oz+z8wCgYIKoZIzj0E
AwIDSAAwRQIhAJH6GsQIutYCxZaDmrtDlrOtiui/gZD07nTjauJI7lDXAiBLTH8c
JtS98yflGtZ2OEeR6MoIwRMCvfPW7JUz4UKxSg==
-----END CERTIFICATE-----
