Certificate:
    Data:
        Version: 3 (0x2)
        Serial Number: 1 (0x1)
        Signature Algorithm: ecdsa-with-SHA256
        Issuer: CN=ISEN, ST=France, C=FR/emailAddress=hugo.millet@isen.yncrea.fr, O=ISEN, OU=ISEN
        Validity
            Not Before: Apr 20 13:52:28 2023 GMT
            Not After : Apr 15 13:52:28 2043 GMT
        Subject: CN=ISEN, ST=France, C=FR/emailAddress=hugo.millet@isen.yncrea.fr, O=ISEN, OU=ISEN
        Subject Public Key Info:
            Public Key Algorithm: id-ecPublicKey
                Public-Key: (384 bit)
                pub:
                    04:47:8a:f2:a5:ec:9d:82:8c:cf:a3:3a:72:d9:fe:
                    b9:e9:6a:74:fb:d3:87:26:dc:de:0f:ba:05:85:ac:
                    c3:3f:7c:46:70:79:42:0e:4a:8a:10:ce:33:9b:84:
                    dc:1b:73:22:f3:0f:4a:7e:ba:b2:7e:8d:e6:71:9b:
                    8d:31:4b:90:74:ac:da:68:fd:c1:1c:dc:cd:9e:1c:
                    f2:3d:f4:6b:a7:6b:36:e3:a5:42:96:0c:d3:e8:81:
                    46:4c:81:e9:13:b0:cf
                ASN1 OID: secp384r1
                NIST CURVE: P-384
        X509v3 extensions:
            X509v3 Basic Constraints: critical
                CA:TRUE
            X509v3 Key Usage: 
                Digital Signature, Key Encipherment
            X509v3 Subject Key Identifier: 
                92:27:E7:68:32:50:B7:59:D4:F2:28:65:96:1E:05:25:12:14:8E:07
    Signature Algorithm: ecdsa-with-SHA256
    Signature Value:
        30:65:02:30:30:8b:ea:82:df:38:43:52:db:9d:b9:f9:20:6f:
        3b:93:a3:75:a4:99:d3:b0:ee:75:8f:4c:71:ca:9d:04:05:09:
        78:2e:c1:5a:f5:d1:f3:82:cd:b6:e2:ea:c3:31:df:af:02:31:
        00:d1:99:ee:80:6f:99:8d:e5:ec:f6:a4:5d:e6:b2:50:d6:fd:
        ec:c8:67:7d:59:29:c9:67:4c:99:4a:9d:40:1c:fb:57:02:cf:
        a8:47:65:0d:20:7a:e0:ef:7a:f1:54:76:21
-----BEGIN CERTIFICATE-----
MIICVzCCAd2gAwIBAgIBATAKBggqhkjOPQQDAjB2MQ0wCwYDVQQDDARJU0VOMQ8w
DQYDVQQIDAZGcmFuY2UxCzAJBgNVBAYTAkZSMSkwJwYJKoZIhvcNAQkBFhpodWdv
Lm1pbGxldEBpc2VuLnluY3JlYS5mcjENMAsGA1UECgwESVNFTjENMAsGA1UECwwE
SVNFTjAeFw0yMzA0MjAxMzUyMjhaFw00MzA0MTUxMzUyMjhaMHYxDTALBgNVBAMM
BElTRU4xDzANBgNVBAgMBkZyYW5jZTELMAkGA1UEBhMCRlIxKTAnBgkqhkiG9w0B
CQEWGmh1Z28ubWlsbGV0QGlzZW4ueW5jcmVhLmZyMQ0wCwYDVQQKDARJU0VOMQ0w
CwYDVQQLDARJU0VOMHYwEAYHKoZIzj0CAQYFK4EEACIDYgAER4rypeydgozPozpy
2f656Wp0+9OHJtzeD7oFhazDP3xGcHlCDkqKEM4zm4TcG3Mi8w9Kfrqyfo3mcZuN
MUuQdKzaaP3BHNzNnhzyPfRrp2s246VClgzT6IFGTIHpE7DPoz8wPTAPBgNVHRMB
Af8EBTADAQH/MAsGA1UdDwQEAwIFoDAdBgNVHQ4EFgQUkifnaDJQt1nU8ihllh4F
JRIUjgcwCgYIKoZIzj0EAwIDaAAwZQIwMIvqgt84Q1Lbnbn5IG87k6N1pJnTsO51
j0xxyp0EBQl4LsFa9dHzgs224urDMd+vAjEA0ZnugG+ZjeXs9qRd5rJQ1v3syGd9
WSnJZ0yZSp1AHPtXAs+oR2UNIHrg73rxVHYh
-----END CERTIFICATE-----
