Certificate:
    Data:
        Version: 3 (0x2)
        Serial Number: 1 (0x1)
        Signature Algorithm: ecdsa-with-SHA256
        Issuer: CN=ISEN ACR, ST=France, C=FR/emailAddress=hugo.millet@isen.yncrea.fr, O=ISEN, OU=ISEN
        Validity
            Not Before: Apr 23 16:26:03 2023 GMT
            Not After : Apr 18 16:26:03 2043 GMT
        Subject: CN=ISEN ACR, ST=France, C=FR/emailAddress=hugo.millet@isen.yncrea.fr, O=ISEN, OU=ISEN
        Subject Public Key Info:
            Public Key Algorithm: id-ecPublicKey
                Public-Key: (384 bit)
                pub:
                    04:1f:ee:e3:6f:15:e8:3f:6b:1e:7b:ba:c3:5e:55:
                    22:2e:23:cf:e9:1a:cb:4c:97:f0:96:ea:33:00:f8:
                    80:50:7a:d5:ec:12:1b:db:bc:2e:0a:63:4a:ed:c2:
                    23:e7:1c:7f:cd:23:2e:7e:f6:fd:1d:c5:5f:1d:49:
                    98:b3:54:be:e5:f9:c5:82:2e:c6:ab:de:c8:03:08:
                    e4:9b:59:c1:18:53:40:c5:1a:fd:24:36:61:28:41:
                    62:fd:bd:64:b3:7f:05
                ASN1 OID: secp384r1
                NIST CURVE: P-384
        X509v3 extensions:
            X509v3 Basic Constraints: critical
                CA:TRUE, pathlen:1
            X509v3 Key Usage: 
                Digital Signature, Key Encipherment, Certificate Sign
            X509v3 Subject Key Identifier: 
                5E:6B:EC:3F:97:05:38:5D:C2:83:89:95:3D:44:E5:29:49:A6:FA:AB
    Signature Algorithm: ecdsa-with-SHA256
    Signature Value:
        30:66:02:31:00:98:2e:d1:2e:28:c6:f8:0b:fc:1c:c7:97:33:
        4a:25:46:89:97:0e:1b:89:42:89:a7:cf:4d:c0:26:9f:5b:79:
        87:61:d0:b8:ef:51:88:37:97:bb:1b:a5:a1:bc:d6:0a:98:02:
        31:00:e8:80:a3:1c:de:98:02:89:61:59:aa:4a:ba:5d:f7:ec:
        b9:3b:ff:93:98:66:50:4c:e9:7e:0a:59:dc:96:70:6a:28:75:
        26:c5:57:79:8a:c4:34:67:2e:33:04:08:cd:3d
-----BEGIN CERTIFICATE-----
MIICYzCCAeigAwIBAgIBATAKBggqhkjOPQQDAjB6MREwDwYDVQQDDAhJU0VOIEFD
UjEPMA0GA1UECAwGRnJhbmNlMQswCQYDVQQGEwJGUjEpMCcGCSqGSIb3DQEJARYa
aHVnby5taWxsZXRAaXNlbi55bmNyZWEuZnIxDTALBgNVBAoMBElTRU4xDTALBgNV
BAsMBElTRU4wHhcNMjMwNDIzMTYyNjAzWhcNNDMwNDE4MTYyNjAzWjB6MREwDwYD
VQQDDAhJU0VOIEFDUjEPMA0GA1UECAwGRnJhbmNlMQswCQYDVQQGEwJGUjEpMCcG
CSqGSIb3DQEJARYaaHVnby5taWxsZXRAaXNlbi55bmNyZWEuZnIxDTALBgNVBAoM
BElTRU4xDTALBgNVBAsMBElTRU4wdjAQBgcqhkjOPQIBBgUrgQQAIgNiAAQf7uNv
Feg/ax57usNeVSIuI8/pGstMl/CW6jMA+IBQetXsEhvbvC4KY0rtwiPnHH/NIy5+
9v0dxV8dSZizVL7l+cWCLsar3sgDCOSbWcEYU0DFGv0kNmEoQWL9vWSzfwWjQjBA
MBIGA1UdEwEB/wQIMAYBAf8CAQEwCwYDVR0PBAQDAgKkMB0GA1UdDgQWBBRea+w/
lwU4XcKDiZU9ROUpSab6qzAKBggqhkjOPQQDAgNpADBmAjEAmC7RLijG+Av8HMeX
M0olRomXDhuJQomnz03AJp9beYdh0LjvUYg3l7sbpaG81gqYAjEA6ICjHN6YAolh
WapKul337Lk7/5OYZlBM6X4KWdyWcGoodSbFV3mKxDRnLjMECM09
-----END CERTIFICATE-----
