Certificate:
    Data:
        Version: 3 (0x2)
        Serial Number: 1 (0x1)
        Signature Algorithm: ecdsa-with-SHA256
        Issuer: CN=ISEN ACR, ST=France, C=FR/emailAddress=hugo.millet@isen.yncrea.fr, O=ISEN, OU=ISEN
        Validity
            Not Before: Apr 25 17:44:30 2023 GMT
            Not After : Apr 20 17:44:30 2043 GMT
        Subject: CN=ISEN ACR, ST=France, C=FR/emailAddress=hugo.millet@isen.yncrea.fr, O=ISEN, OU=ISEN
        Subject Public Key Info:
            Public Key Algorithm: id-ecPublicKey
                Public-Key: (384 bit)
                pub:
                    04:d6:69:dc:f5:29:f5:71:bc:26:52:41:ae:a0:5a:
                    6d:b3:ec:76:7a:72:a8:8a:4b:48:69:cd:ae:6a:d9:
                    96:40:28:07:31:24:20:43:7c:20:35:1f:90:32:2f:
                    9e:6d:25:cc:17:c8:e0:37:e2:9e:61:80:94:dd:a3:
                    ac:66:7c:ab:02:88:5f:f6:22:63:60:e7:1e:3e:0f:
                    0d:d5:dc:66:b2:e0:ae:ae:a8:76:88:92:78:a9:bd:
                    10:9b:46:dc:d2:78:f3
                ASN1 OID: secp384r1
                NIST CURVE: P-384
        X509v3 extensions:
            X509v3 Basic Constraints: critical
                CA:TRUE, pathlen:1
            X509v3 Key Usage: 
                Digital Signature, Key Encipherment, Certificate Sign
            X509v3 Subject Key Identifier: 
                FF:D0:C7:74:3A:83:EC:C5:05:C4:86:D0:AD:9B:FD:C5:04:2B:2D:A5
    Signature Algorithm: ecdsa-with-SHA256
    Signature Value:
        30:66:02:31:00:db:d5:65:50:37:aa:c4:50:40:02:60:57:5f:
        14:e3:ea:06:51:22:52:14:41:49:49:9b:98:11:c7:b5:c1:13:
        f3:ff:e8:5f:ec:0a:30:83:8d:e7:10:2c:3b:8b:53:ce:6f:02:
        31:00:bd:f6:5d:47:74:66:76:b4:43:94:94:22:76:5a:17:f6:
        a5:c1:d7:87:89:1b:a7:7f:a3:df:74:b3:1b:23:83:ad:f8:8f:
        14:9f:1b:e6:63:a4:60:28:e0:0d:ac:c2:cc:76
-----BEGIN CERTIFICATE-----
MIICYzCCAeigAwIBAgIBATAKBggqhkjOPQQDAjB6MREwDwYDVQQDDAhJU0VOIEFD
UjEPMA0GA1UECAwGRnJhbmNlMQswCQYDVQQGEwJGUjEpMCcGCSqGSIb3DQEJARYa
aHVnby5taWxsZXRAaXNlbi55bmNyZWEuZnIxDTALBgNVBAoMBElTRU4xDTALBgNV
BAsMBElTRU4wHhcNMjMwNDI1MTc0NDMwWhcNNDMwNDIwMTc0NDMwWjB6MREwDwYD
VQQDDAhJU0VOIEFDUjEPMA0GA1UECAwGRnJhbmNlMQswCQYDVQQGEwJGUjEpMCcG
CSqGSIb3DQEJARYaaHVnby5taWxsZXRAaXNlbi55bmNyZWEuZnIxDTALBgNVBAoM
BElTRU4xDTALBgNVBAsMBElTRU4wdjAQBgcqhkjOPQIBBgUrgQQAIgNiAATWadz1
KfVxvCZSQa6gWm2z7HZ6cqiKS0hpza5q2ZZAKAcxJCBDfCA1H5AyL55tJcwXyOA3
4p5hgJTdo6xmfKsCiF/2ImNg5x4+Dw3V3Gay4K6uqHaIknipvRCbRtzSePOjQjBA
MBIGA1UdEwEB/wQIMAYBAf8CAQEwCwYDVR0PBAQDAgKkMB0GA1UdDgQWBBT/0Md0
OoPsxQXEhtCtm/3FBCstpTAKBggqhkjOPQQDAgNpADBmAjEA29VlUDeqxFBAAmBX
XxTj6gZRIlIUQUlJm5gRx7XBE/P/6F/sCjCDjecQLDuLU85vAjEAvfZdR3RmdrRD
lJQidloX9qXB14eJG6d/o990sxsjg634jxSfG+ZjpGAo4A2swsx2
-----END CERTIFICATE-----
