Certificate:
    Data:
        Version: 3 (0x2)
        Serial Number: 1 (0x1)
        Signature Algorithm: ecdsa-with-SHA256
        Issuer: CN=ISEN ACR, ST=France, C=FR/emailAddress=hugo.millet@isen.yncrea.fr, O=ISEN, OU=ISEN
        Validity
            Not Before: Apr 23 18:24:21 2023 GMT
            Not After : Apr 18 18:24:21 2043 GMT
        Subject: CN=ISEN ACR, ST=France, C=FR/emailAddress=hugo.millet@isen.yncrea.fr, O=ISEN, OU=ISEN
        Subject Public Key Info:
            Public Key Algorithm: id-ecPublicKey
                Public-Key: (384 bit)
                pub:
                    04:b3:57:3e:fe:5b:0c:cc:c3:37:98:d2:da:01:6d:
                    99:a2:7e:e1:c2:99:5a:f4:9e:e9:68:e8:d1:28:3d:
                    fb:2f:ad:4c:82:7d:e9:29:b0:a6:09:96:ac:50:92:
                    52:45:6c:fc:8e:71:d9:1d:9b:c7:f0:28:9f:40:04:
                    ee:7b:99:bb:47:73:de:21:06:ba:03:43:87:30:53:
                    b5:ac:a2:e2:9a:09:bf:dd:4a:e0:5a:90:d2:13:f2:
                    46:be:15:e8:43:d1:91
                ASN1 OID: secp384r1
                NIST CURVE: P-384
        X509v3 extensions:
            X509v3 Basic Constraints: critical
                CA:TRUE, pathlen:1
            X509v3 Key Usage: 
                Digital Signature, Key Encipherment, Certificate Sign
            X509v3 Subject Key Identifier: 
                D9:3C:24:53:17:F4:D3:2C:C2:35:F8:5C:6F:88:FB:0B:41:2C:C7:31
    Signature Algorithm: ecdsa-with-SHA256
    Signature Value:
        30:65:02:30:59:6d:3b:1b:ce:2d:16:0d:f8:d9:ca:2d:32:45:
        48:54:06:13:89:a7:00:6c:f0:2f:b1:b0:92:0d:12:48:24:63:
        b3:ce:d0:1f:65:1f:0e:2e:4f:a0:8c:ba:fe:ac:10:e1:02:31:
        00:ec:61:1b:ac:ff:83:81:fb:f4:d6:5d:2b:3f:83:84:1c:aa:
        1e:fe:bf:aa:c9:fa:8d:2e:9f:43:81:06:a1:95:05:aa:6e:27:
        99:e0:c2:91:16:fc:71:f8:1c:cf:ef:57:43
-----BEGIN CERTIFICATE-----
MIICYjCCAeigAwIBAgIBATAKBggqhkjOPQQDAjB6MREwDwYDVQQDDAhJU0VOIEFD
UjEPMA0GA1UECAwGRnJhbmNlMQswCQYDVQQGEwJGUjEpMCcGCSqGSIb3DQEJARYa
aHVnby5taWxsZXRAaXNlbi55bmNyZWEuZnIxDTALBgNVBAoMBElTRU4xDTALBgNV
BAsMBElTRU4wHhcNMjMwNDIzMTgyNDIxWhcNNDMwNDE4MTgyNDIxWjB6MREwDwYD
VQQDDAhJU0VOIEFDUjEPMA0GA1UECAwGRnJhbmNlMQswCQYDVQQGEwJGUjEpMCcG
CSqGSIb3DQEJARYaaHVnby5taWxsZXRAaXNlbi55bmNyZWEuZnIxDTALBgNVBAoM
BElTRU4xDTALBgNVBAsMBElTRU4wdjAQBgcqhkjOPQIBBgUrgQQAIgNiAASzVz7+
WwzMwzeY0toBbZmifuHCmVr0nulo6NEoPfsvrUyCfekpsKYJlqxQklJFbPyOcdkd
m8fwKJ9ABO57mbtHc94hBroDQ4cwU7WsouKaCb/dSuBakNIT8ka+FehD0ZGjQjBA
MBIGA1UdEwEB/wQIMAYBAf8CAQEwCwYDVR0PBAQDAgKkMB0GA1UdDgQWBBTZPCRT
F/TTLMI1+FxviPsLQSzHMTAKBggqhkjOPQQDAgNoADBlAjBZbTsbzi0WDfjZyi0y
RUhUBhOJpwBs8C+xsJINEkgkY7PO0B9lHw4uT6CMuv6sEOECMQDsYRus/4OB+/TW
XSs/g4Qcqh7+v6rJ+o0un0OBBqGVBapuJ5ngwpEW/HH4HM/vV0M=
-----END CERTIFICATE-----
