Certificate:
    Data:
        Version: 3 (0x2)
        Serial Number: 1 (0x1)
        Signature Algorithm: ecdsa-with-SHA256
        Issuer: CN=ISEN ACR, ST=France, C=FR/emailAddress=hugo.millet@isen.yncrea.fr, O=ISEN, OU=ISEN
        Validity
            Not Before: Apr 30 16:03:07 2023 GMT
            Not After : Apr 25 16:03:07 2043 GMT
        Subject: CN=ISEN ACR, ST=France, C=FR/emailAddress=hugo.millet@isen.yncrea.fr, O=ISEN, OU=ISEN
        Subject Public Key Info:
            Public Key Algorithm: id-ecPublicKey
                Public-Key: (256 bit)
                pub:
                    04:be:fe:a0:82:12:9f:33:57:43:52:79:f5:cd:94:
                    d2:7c:06:02:50:87:1a:97:56:19:3c:e0:60:f6:31:
                    bd:22:76:90:b6:1c:f1:e1:a6:dc:c9:04:da:0b:b2:
                    e7:c4:0a:95:f1:62:3b:c9:90:04:c2:c4:3e:49:09:
                    48:de:fa:fc:de
                ASN1 OID: prime256v1
                NIST CURVE: P-256
        X509v3 extensions:
            X509v3 Basic Constraints: critical
                CA:TRUE, pathlen:1
            X509v3 Key Usage: 
                Digital Signature, Key Encipherment, Certificate Sign
            X509v3 Subject Key Identifier: 
                F5:A7:6C:0B:2A:E8:0A:D6:7F:40:B7:4B:49:74:AF:69:7F:7C:76:E6
    Signature Algorithm: ecdsa-with-SHA256
    Signature Value:
        30:45:02:21:00:e8:89:26:9a:ef:b5:cd:e7:1b:11:8d:a3:9c:
        bd:56:45:a8:9f:01:6d:92:03:9a:0a:c5:ba:35:d1:7c:91:b4:
        1d:02:20:5a:d0:3f:03:f4:75:29:74:9a:3f:38:95:b1:f4:2e:
        7f:00:48:25:ad:b0:3a:7a:b6:db:93:1f:00:00:d8:43:d7
-----BEGIN CERTIFICATE-----
MIICJTCCAcugAwIBAgIBATAKBggqhkjOPQQDAjB6MREwDwYDVQQDDAhJU0VOIEFD
UjEPMA0GA1UECAwGRnJhbmNlMQswCQYDVQQGEwJGUjEpMCcGCSqGSIb3DQEJARYa
aHVnby5taWxsZXRAaXNlbi55bmNyZWEuZnIxDTALBgNVBAoMBElTRU4xDTALBgNV
BAsMBElTRU4wHhcNMjMwNDMwMTYwMzA3WhcNNDMwNDI1MTYwMzA3WjB6MREwDwYD
VQQDDAhJU0VOIEFDUjEPMA0GA1UECAwGRnJhbmNlMQswCQYDVQQGEwJGUjEpMCcG
CSqGSIb3DQEJARYaaHVnby5taWxsZXRAaXNlbi55bmNyZWEuZnIxDTALBgNVBAoM
BElTRU4xDTALBgNVBAsMBElTRU4wWTATBgcqhkjOPQIBBggqhkjOPQMBBwNCAAS+
/qCCEp8zV0NSefXNlNJ8BgJQhxqXVhk84GD2Mb0idpC2HPHhptzJBNoLsufECpXx
YjvJkATCxD5JCUje+vzeo0IwQDASBgNVHRMBAf8ECDAGAQH/AgEBMAsGA1UdDwQE
AwICpDAdBgNVHQ4EFgQU9adsCyroCtZ/QLdLSXSvaX98duYwCgYIKoZIzj0EAwID
SAAwRQIhAOiJJprvtc3nGxGNo5y9VkWonwFtkgOaCsW6NdF8kbQdAiBa0D8D9HUp
dJo/OJWx9C5/AEglrbA6erbbkx8AANhD1w==
-----END CERTIFICATE-----
