Certificate:
    Data:
        Version: 3 (0x2)
        Serial Number: 1 (0x1)
        Signature Algorithm: ecdsa-with-SHA256
        Issuer: CN=ISEN ACR, ST=France, C=FR/emailAddress=hugo.millet@isen.yncrea.fr, O=ISEN, OU=ISEN
        Validity
            Not Before: Apr 23 19:04:07 2023 GMT
            Not After : Apr 18 19:04:07 2043 GMT
        Subject: CN=ISEN ACR, ST=France, C=FR/emailAddress=hugo.millet@isen.yncrea.fr, O=ISEN, OU=ISEN
        Subject Public Key Info:
            Public Key Algorithm: id-ecPublicKey
                Public-Key: (384 bit)
                pub:
                    04:6c:68:3a:c9:51:15:f8:27:a3:69:e2:2e:d8:3a:
                    d2:16:2b:aa:8b:c7:af:2e:14:29:14:25:59:a2:ac:
                    86:1f:ee:e3:fa:1b:db:09:c2:80:d6:9c:39:3e:78:
                    29:4f:28:e8:d3:63:09:42:51:90:9a:b4:58:15:49:
                    47:80:07:8f:31:87:12:6f:7f:74:e7:ab:02:e3:25:
                    7a:9a:4a:53:0b:f7:e6:f4:51:21:e2:ba:c8:d4:67:
                    d2:49:0d:d5:37:58:b7
                ASN1 OID: secp384r1
                NIST CURVE: P-384
        X509v3 extensions:
            X509v3 Basic Constraints: critical
                CA:TRUE, pathlen:1
            X509v3 Key Usage: 
                Digital Signature, Key Encipherment, Certificate Sign
            X509v3 Subject Key Identifier: 
                1C:CB:56:22:70:FA:40:6E:FD:BA:53:00:7F:D1:C9:ED:AB:26:DB:1F
    Signature Algorithm: ecdsa-with-SHA256
    Signature Value:
        30:65:02:30:46:82:10:f9:3a:6a:0b:af:f5:d8:de:39:f7:54:
        2e:75:5c:d8:a9:a1:65:e1:94:cd:c1:2a:c5:ee:e2:51:81:bf:
        0b:4d:bb:b4:de:a0:51:58:c2:7f:0b:12:fb:32:73:6b:02:31:
        00:a6:0c:a7:11:a3:09:ab:4d:e8:fa:a8:45:e1:87:57:06:a5:
        8a:f7:0d:2d:6b:73:2f:e0:22:aa:9e:44:21:9f:eb:c8:a8:17:
        70:ff:a9:76:6b:18:97:16:f4:09:04:9d:73
-----BEGIN CERTIFICATE-----
MIICYjCCAeigAwIBAgIBATAKBggqhkjOPQQDAjB6MREwDwYDVQQDDAhJU0VOIEFD
UjEPMA0GA1UECAwGRnJhbmNlMQswCQYDVQQGEwJGUjEpMCcGCSqGSIb3DQEJARYa
aHVnby5taWxsZXRAaXNlbi55bmNyZWEuZnIxDTALBgNVBAoMBElTRU4xDTALBgNV
BAsMBElTRU4wHhcNMjMwNDIzMTkwNDA3WhcNNDMwNDE4MTkwNDA3WjB6MREwDwYD
VQQDDAhJU0VOIEFDUjEPMA0GA1UECAwGRnJhbmNlMQswCQYDVQQGEwJGUjEpMCcG
CSqGSIb3DQEJARYaaHVnby5taWxsZXRAaXNlbi55bmNyZWEuZnIxDTALBgNVBAoM
BElTRU4xDTALBgNVBAsMBElTRU4wdjAQBgcqhkjOPQIBBgUrgQQAIgNiAARsaDrJ
URX4J6Np4i7YOtIWK6qLx68uFCkUJVmirIYf7uP6G9sJwoDWnDk+eClPKOjTYwlC
UZCatFgVSUeAB48xhxJvf3TnqwLjJXqaSlML9+b0USHiusjUZ9JJDdU3WLejQjBA
MBIGA1UdEwEB/wQIMAYBAf8CAQEwCwYDVR0PBAQDAgKkMB0GA1UdDgQWBBQcy1Yi
cPpAbv26UwB/0cntqybbHzAKBggqhkjOPQQDAgNoADBlAjBGghD5OmoLr/XY3jn3
VC51XNipoWXhlM3BKsXu4lGBvwtNu7TeoFFYwn8LEvsyc2sCMQCmDKcRowmrTej6
qEXhh1cGpYr3DS1rcy/gIqqeRCGf68ioF3D/qXZrGJcW9AkEnXM=
-----END CERTIFICATE-----
