Certificate:
    Data:
        Version: 3 (0x2)
        Serial Number: 1 (0x1)
        Signature Algorithm: ecdsa-with-SHA256
        Issuer: CN=ISEN ACR, ST=France, C=FR/emailAddress=hugo.millet@isen.yncrea.fr, O=ISEN, OU=ISEN
        Validity
            Not Before: Apr 20 15:21:30 2023 GMT
            Not After : Apr 15 15:21:30 2043 GMT
        Subject: CN=ISEN ACR, ST=France, C=FR/emailAddress=hugo.millet@isen.yncrea.fr, O=ISEN, OU=ISEN
        Subject Public Key Info:
            Public Key Algorithm: id-ecPublicKey
                Public-Key: (384 bit)
                pub:
                    04:7c:7c:28:29:f2:fb:d7:b3:52:fd:7b:93:0b:4f:
                    32:65:f7:be:88:76:4e:a1:aa:b3:6e:d4:0d:ab:87:
                    41:aa:cb:eb:4a:45:ad:df:d5:9c:a1:32:01:b1:e5:
                    bb:7b:b7:20:2a:c3:ec:ab:dd:1b:a0:34:11:f0:9e:
                    ae:13:7b:f0:e2:c3:d3:59:5c:0a:88:d8:c7:49:53:
                    d0:ba:ac:5b:cd:99:ac:a6:6a:74:78:45:4d:15:df:
                    fa:06:5d:7c:d7:5c:f8
                ASN1 OID: secp384r1
                NIST CURVE: P-384
        X509v3 extensions:
            X509v3 Basic Constraints: critical
                CA:TRUE, pathlen:1
            X509v3 Key Usage: 
                Digital Signature, Key Encipherment, Certificate Sign
            X509v3 Subject Key Identifier: 
                CA:5C:EE:FA:A0:2B:43:40:47:F7:29:A8:E9:AC:5E:40:88:A3:87:0A
    Signature Algorithm: ecdsa-with-SHA256
    Signature Value:
        30:65:02:30:02:a7:1b:b8:08:b3:8e:c6:0a:0d:a4:a2:2b:18:
        46:39:7b:a7:71:55:c4:6b:35:66:a9:4a:f4:1d:12:54:5a:55:
        60:97:d9:bb:43:06:94:ef:1d:64:90:3d:d2:14:c8:02:02:31:
        00:bf:5c:07:4a:06:21:ce:4b:78:d0:54:19:f0:ef:fa:8c:97:
        c0:4d:8a:4b:1d:bc:d2:3a:1b:2d:51:58:d9:a1:26:76:ab:68:
        33:c0:c4:1d:d6:9f:2b:93:54:7d:f8:ea:85
-----BEGIN CERTIFICATE-----
MIICYjCCAeigAwIBAgIBATAKBggqhkjOPQQDAjB6MREwDwYDVQQDDAhJU0VOIEFD
UjEPMA0GA1UECAwGRnJhbmNlMQswCQYDVQQGEwJGUjEpMCcGCSqGSIb3DQEJARYa
aHVnby5taWxsZXRAaXNlbi55bmNyZWEuZnIxDTALBgNVBAoMBElTRU4xDTALBgNV
BAsMBElTRU4wHhcNMjMwNDIwMTUyMTMwWhcNNDMwNDE1MTUyMTMwWjB6MREwDwYD
VQQDDAhJU0VOIEFDUjEPMA0GA1UECAwGRnJhbmNlMQswCQYDVQQGEwJGUjEpMCcG
CSqGSIb3DQEJARYaaHVnby5taWxsZXRAaXNlbi55bmNyZWEuZnIxDTALBgNVBAoM
BElTRU4xDTALBgNVBAsMBElTRU4wdjAQBgcqhkjOPQIBBgUrgQQAIgNiAAR8fCgp
8vvXs1L9e5MLTzJl976Idk6hqrNu1A2rh0Gqy+tKRa3f1ZyhMgGx5bt7tyAqw+yr
3RugNBHwnq4Te/Diw9NZXAqI2MdJU9C6rFvNmaymanR4RU0V3/oGXXzXXPijQjBA
MBIGA1UdEwEB/wQIMAYBAf8CAQEwCwYDVR0PBAQDAgKkMB0GA1UdDgQWBBTKXO76
oCtDQEf3KajprF5AiKOHCjAKBggqhkjOPQQDAgNoADBlAjACpxu4CLOOxgoNpKIr
GEY5e6dxVcRrNWapSvQdElRaVWCX2btDBpTvHWSQPdIUyAICMQC/XAdKBiHOS3jQ
VBnw7/qMl8BNiksdvNI6Gy1RWNmhJnaraDPAxB3WnyuTVH346oU=
-----END CERTIFICATE-----
