Certificate:
    Data:
        Version: 3 (0x2)
        Serial Number: 1 (0x1)
        Signature Algorithm: ecdsa-with-SHA256
        Issuer: CN=ISEN ACR, ST=France, C=FR/emailAddress=hugo.millet@isen.yncrea.fr, O=ISEN, OU=ISEN
        Validity
            Not Before: Apr 20 14:46:06 2023 GMT
            Not After : Apr 15 14:46:06 2043 GMT
        Subject: CN=ISEN ACR, ST=France, C=FR/emailAddress=hugo.millet@isen.yncrea.fr, O=ISEN, OU=ISEN
        Subject Public Key Info:
            Public Key Algorithm: id-ecPublicKey
                Public-Key: (384 bit)
                pub:
                    04:31:cf:9d:23:69:09:bd:2b:5f:95:b7:3a:b0:d2:
                    cc:86:8d:6e:54:c3:03:a7:70:fc:3d:c3:57:b6:7e:
                    d3:d7:32:5c:7a:c1:35:44:6c:c7:f9:20:40:1b:53:
                    36:f9:bd:da:dc:48:26:f0:89:98:af:35:20:2f:dd:
                    c2:5d:be:2f:55:b5:0b:0e:75:29:bd:98:a5:e8:7f:
                    f7:52:fe:f4:3c:a8:c9:de:15:68:fe:d3:16:bf:be:
                    9b:7f:f7:35:dd:14:39
                ASN1 OID: secp384r1
                NIST CURVE: P-384
        X509v3 extensions:
            X509v3 Basic Constraints: critical
                CA:TRUE, pathlen:1
            X509v3 Key Usage: 
                Digital Signature, Key Encipherment, Certificate Sign
            X509v3 Subject Key Identifier: 
                B7:64:ED:08:FB:19:38:E5:FA:F8:85:E5:51:DC:2E:BE:93:81:2E:5F
    Signature Algorithm: ecdsa-with-SHA256
    Signature Value:
        30:65:02:31:00:9b:1a:93:41:80:3a:a0:65:04:38:20:8b:7a:
        4b:be:d0:40:dd:54:23:de:8d:01:d4:a4:91:93:2e:c9:61:16:
        ed:28:a4:77:45:a8:50:21:2e:8b:13:45:a4:4f:70:8d:2f:02:
        30:44:0b:d7:89:d6:31:3a:fc:dc:9b:6f:44:23:7e:0d:d4:a0:
        6a:c0:ca:88:a7:84:63:36:e1:2a:a5:2e:44:87:f6:b4:07:fe:
        2c:e0:08:ec:3b:45:8d:46:f0:2b:ba:ff:07
-----BEGIN CERTIFICATE-----
MIICYjCCAeigAwIBAgIBATAKBggqhkjOPQQDAjB6MREwDwYDVQQDDAhJU0VOIEFD
UjEPMA0GA1UECAwGRnJhbmNlMQswCQYDVQQGEwJGUjEpMCcGCSqGSIb3DQEJARYa
aHVnby5taWxsZXRAaXNlbi55bmNyZWEuZnIxDTALBgNVBAoMBElTRU4xDTALBgNV
BAsMBElTRU4wHhcNMjMwNDIwMTQ0NjA2WhcNNDMwNDE1MTQ0NjA2WjB6MREwDwYD
VQQDDAhJU0VOIEFDUjEPMA0GA1UECAwGRnJhbmNlMQswCQYDVQQGEwJGUjEpMCcG
CSqGSIb3DQEJARYaaHVnby5taWxsZXRAaXNlbi55bmNyZWEuZnIxDTALBgNVBAoM
BElTRU4xDTALBgNVBAsMBElTRU4wdjAQBgcqhkjOPQIBBgUrgQQAIgNiAAQxz50j
aQm9K1+Vtzqw0syGjW5UwwOncPw9w1e2ftPXMlx6wTVEbMf5IEAbUzb5vdrcSCbw
iZivNSAv3cJdvi9VtQsOdSm9mKXof/dS/vQ8qMneFWj+0xa/vpt/9zXdFDmjQjBA
MBIGA1UdEwEB/wQIMAYBAf8CAQEwCwYDVR0PBAQDAgKkMB0GA1UdDgQWBBS3ZO0I
+xk45fr4heVR3C6+k4EuXzAKBggqhkjOPQQDAgNoADBlAjEAmxqTQYA6oGUEOCCL
eku+0EDdVCPejQHUpJGTLslhFu0opHdFqFAhLosTRaRPcI0vAjBEC9eJ1jE6/Nyb
b0Qjfg3UoGrAyoinhGM24SqlLkSH9rQH/izgCOw7RY1G8Cu6/wc=
-----END CERTIFICATE-----
