Certificate:
    Data:
        Version: 3 (0x2)
        Serial Number: 1 (0x1)
        Signature Algorithm: ecdsa-with-SHA256
        Issuer: CN=ISEN ACR, ST=France, C=FR/emailAddress=hugo.millet@isen.yncrea.fr, O=ISEN, OU=ISEN
        Validity
            Not Before: Apr 20 15:15:54 2023 GMT
            Not After : Apr 15 15:15:54 2043 GMT
        Subject: CN=ISEN ACR, ST=France, C=FR/emailAddress=hugo.millet@isen.yncrea.fr, O=ISEN, OU=ISEN
        Subject Public Key Info:
            Public Key Algorithm: id-ecPublicKey
                Public-Key: (384 bit)
                pub:
                    04:db:8f:ac:bb:f8:de:44:bf:69:69:ee:07:2e:03:
                    ad:7a:a7:20:24:dd:b4:a9:c5:f4:f7:23:75:05:af:
                    3e:e0:c4:17:54:43:d5:5b:45:ba:2c:de:d7:c6:d0:
                    07:ef:0f:47:d7:3c:e7:bd:94:b4:9f:f4:aa:01:12:
                    ff:bf:83:3e:0c:a7:24:75:c5:d1:36:89:eb:12:81:
                    33:43:74:ca:69:2e:2e:fc:67:c4:e6:3e:e6:a8:19:
                    39:2c:db:0c:38:03:8d
                ASN1 OID: secp384r1
                NIST CURVE: P-384
        X509v3 extensions:
            X509v3 Basic Constraints: critical
                CA:TRUE, pathlen:1
            X509v3 Key Usage: 
                Digital Signature, Key Encipherment, Certificate Sign
            X509v3 Subject Key Identifier: 
                81:FA:04:75:3C:30:E1:2C:B6:F1:AA:36:4A:0B:4D:89:4C:2F:E7:89
    Signature Algorithm: ecdsa-with-SHA256
    Signature Value:
        30:65:02:30:76:3c:ac:dd:54:bc:86:78:0f:a3:bf:a3:2c:63:
        dc:a1:44:82:08:88:66:4e:4e:33:84:7b:26:36:69:9a:5d:bc:
        f2:22:16:8b:5e:25:ae:ae:4c:ac:17:ee:64:80:fa:18:02:31:
        00:bd:ce:a9:ba:bb:e2:9d:47:d4:08:95:fa:70:56:ec:a2:5b:
        23:12:b7:2a:81:8c:dc:e3:98:23:12:8b:95:cc:8a:df:3a:8e:
        77:34:84:5b:b6:e8:3b:00:98:70:99:31:f4
-----BEGIN CERTIFICATE-----
MIICYjCCAeigAwIBAgIBATAKBggqhkjOPQQDAjB6MREwDwYDVQQDDAhJU0VOIEFD
UjEPMA0GA1UECAwGRnJhbmNlMQswCQYDVQQGEwJGUjEpMCcGCSqGSIb3DQEJARYa
aHVnby5taWxsZXRAaXNlbi55bmNyZWEuZnIxDTALBgNVBAoMBElTRU4xDTALBgNV
BAsMBElTRU4wHhcNMjMwNDIwMTUxNTU0WhcNNDMwNDE1MTUxNTU0WjB6MREwDwYD
VQQDDAhJU0VOIEFDUjEPMA0GA1UECAwGRnJhbmNlMQswCQYDVQQGEwJGUjEpMCcG
CSqGSIb3DQEJARYaaHVnby5taWxsZXRAaXNlbi55bmNyZWEuZnIxDTALBgNVBAoM
BElTRU4xDTALBgNVBAsMBElTRU4wdjAQBgcqhkjOPQIBBgUrgQQAIgNiAATbj6y7
+N5Ev2lp7gcuA616pyAk3bSpxfT3I3UFrz7gxBdUQ9VbRbos3tfG0AfvD0fXPOe9
lLSf9KoBEv+/gz4MpyR1xdE2iesSgTNDdMppLi78Z8TmPuaoGTks2ww4A42jQjBA
MBIGA1UdEwEB/wQIMAYBAf8CAQEwCwYDVR0PBAQDAgKkMB0GA1UdDgQWBBSB+gR1
PDDhLLbxqjZKC02JTC/niTAKBggqhkjOPQQDAgNoADBlAjB2PKzdVLyGeA+jv6Ms
Y9yhRIIIiGZOTjOEeyY2aZpdvPIiFoteJa6uTKwX7mSA+hgCMQC9zqm6u+KdR9QI
lfpwVuyiWyMStyqBjNzjmCMSi5XMit86jnc0hFu26DsAmHCZMfQ=
-----END CERTIFICATE-----
