Certificate:
    Data:
        Version: 3 (0x2)
        Serial Number: 1 (0x1)
        Signature Algorithm: ecdsa-with-SHA256
        Issuer: CN=ISEN, ST=France, C=FR/emailAddress=hugo.millet@isen.yncrea.fr, O=ISEN, OU=ISEN
        Validity
            Not Before: Apr 20 13:03:26 2023 GMT
            Not After : Apr 19 13:03:26 2024 GMT
        Subject: CN=ISEN, ST=France, C=FR/emailAddress=hugo.millet@isen.yncrea.fr, O=ISEN, OU=ISEN
        Subject Public Key Info:
            Public Key Algorithm: id-ecPublicKey
                Public-Key: (384 bit)
                pub:
                    04:18:b8:6a:62:87:69:19:11:07:ea:c0:ac:9c:db:
                    81:7f:87:26:2b:cf:25:01:45:78:28:8d:9f:91:be:
                    f4:7f:fc:6d:b7:9e:34:2d:df:e2:ad:0a:65:f5:3a:
                    28:0c:d4:79:bd:b2:71:a7:54:26:b6:b0:b7:dc:73:
                    f9:aa:5c:58:43:91:82:21:29:f0:74:10:ae:04:ab:
                    18:aa:ee:2a:91:89:03:ad:a0:ef:4b:a3:24:5c:3c:
                    0b:30:b7:92:e7:03:a8
                ASN1 OID: secp384r1
                NIST CURVE: P-384
        X509v3 extensions:
            X509v3 Basic Constraints: critical
                CA:TRUE
            X509v3 Key Usage: 
                Digital Signature, Key Encipherment
            X509v3 Subject Key Identifier: 
                DA:EA:63:0B:B4:F1:9D:07:06:63:3C:58:0C:E4:B6:D8:BE:DB:2E:D8
    Signature Algorithm: ecdsa-with-SHA256
    Signature Value:
        30:66:02:31:00:ab:3c:12:3d:f1:94:e6:e9:29:b8:34:de:90:
        b4:1d:2b:b3:47:22:2b:c4:fe:30:34:bf:20:4f:73:ab:50:50:
        4d:0b:aa:10:6b:e7:cc:a4:10:2a:e6:27:7c:cd:97:c5:a6:02:
        31:00:c8:f4:48:ff:e1:8d:a1:47:f4:60:4a:f0:91:cc:6f:30:
        f2:72:1d:c1:b9:76:b1:5e:d8:af:9d:4e:d9:03:5c:8e:a8:d2:
        f9:af:f0:8c:71:e9:2f:a8:5a:9d:e6:6d:66:41
-----BEGIN CERTIFICATE-----
MIICWDCCAd2gAwIBAgIBATAKBggqhkjOPQQDAjB2MQ0wCwYDVQQDDARJU0VOMQ8w
DQYDVQQIDAZGcmFuY2UxCzAJBgNVBAYTAkZSMSkwJwYJKoZIhvcNAQkBFhpodWdv
Lm1pbGxldEBpc2VuLnluY3JlYS5mcjENMAsGA1UECgwESVNFTjENMAsGA1UECwwE
SVNFTjAeFw0yMzA0MjAxMzAzMjZaFw0yNDA0MTkxMzAzMjZaMHYxDTALBgNVBAMM
BElTRU4xDzANBgNVBAgMBkZyYW5jZTELMAkGA1UEBhMCRlIxKTAnBgkqhkiG9w0B
CQEWGmh1Z28ubWlsbGV0QGlzZW4ueW5jcmVhLmZyMQ0wCwYDVQQKDARJU0VOMQ0w
CwYDVQQLDARJU0VOMHYwEAYHKoZIzj0CAQYFK4EEACIDYgAEGLhqYodpGREH6sCs
nNuBf4cmK88lAUV4KI2fkb70f/xtt540Ld/irQpl9TooDNR5vbJxp1QmtrC33HP5
qlxYQ5GCISnwdBCuBKsYqu4qkYkDraDvS6MkXDwLMLeS5wOooz8wPTAPBgNVHRMB
Af8EBTADAQH/MAsGA1UdDwQEAwIFoDAdBgNVHQ4EFgQU2upjC7TxnQcGYzxYDOS2
2L7bLtgwCgYIKoZIzj0EAwIDaQAwZgIxAKs8Ej3xlObpKbg03pC0HSuzRyIrxP4w
NL8gT3OrUFBNC6oQa+fMpBAq5id8zZfFpgIxAMj0SP/hjaFH9GBK8JHMbzDych3B
uXaxXtivnU7ZA1yOqNL5r/CMcekvqFqd5m1mQQ==
-----END CERTIFICATE-----
