Certificate:
    Data:
        Version: 3 (0x2)
        Serial Number: 1 (0x1)
        Signature Algorithm: ecdsa-with-SHA256
        Issuer: CN=ISEN ACR, ST=France, C=FR/emailAddress=hugo.millet@isen.yncrea.fr, O=ISEN, OU=ISEN
        Validity
            Not Before: Apr 23 15:46:04 2023 GMT
            Not After : Apr 18 15:46:04 2043 GMT
        Subject: CN=ISEN ACR, ST=France, C=FR/emailAddress=hugo.millet@isen.yncrea.fr, O=ISEN, OU=ISEN
        Subject Public Key Info:
            Public Key Algorithm: id-ecPublicKey
                Public-Key: (384 bit)
                pub:
                    04:a7:f3:49:f5:5c:f9:21:45:ab:74:ea:41:84:ad:
                    2a:ba:db:7c:c0:16:23:03:55:71:73:29:70:e7:71:
                    7d:36:fa:fb:e8:9d:2b:49:0f:9f:26:05:7b:cf:01:
                    9a:80:26:c2:0c:14:6f:ff:f1:7f:9c:fe:31:01:35:
                    58:72:ee:f9:f1:8d:22:f1:c4:5e:ce:6f:30:ad:ac:
                    6e:e5:34:fe:2e:cd:64:a0:e9:a2:d6:e4:34:d5:0e:
                    fb:40:ef:9c:73:1d:6f
                ASN1 OID: secp384r1
                NIST CURVE: P-384
        X509v3 extensions:
            X509v3 Basic Constraints: critical
                CA:TRUE, pathlen:1
            X509v3 Key Usage: 
                Digital Signature, Key Encipherment, Certificate Sign
            X509v3 Subject Key Identifier: 
                01:27:46:D3:EB:39:4B:75:C7:FF:66:A8:B4:50:F1:EF:59:D2:EF:2E
    Signature Algorithm: ecdsa-with-SHA256
    Signature Value:
        30:64:02:30:71:a3:3f:b8:ba:f0:d5:98:eb:29:10:87:3b:06:
        0f:b6:fc:83:38:4d:0d:53:d3:fc:3f:04:68:07:e3:aa:60:90:
        0b:ac:f6:56:55:98:08:2b:cb:fa:e9:f9:be:c4:09:04:02:30:
        75:aa:d1:59:fb:f0:f1:b3:a6:24:bb:17:0e:2a:c4:0e:dc:d0:
        b4:2d:58:c3:9b:00:8d:ab:a6:ec:6c:02:5f:df:21:e6:ad:7b:
        24:a8:12:1a:cf:2a:7b:f2:3b:b0:58:40
-----BEGIN CERTIFICATE-----
MIICYTCCAeigAwIBAgIBATAKBggqhkjOPQQDAjB6MREwDwYDVQQDDAhJU0VOIEFD
UjEPMA0GA1UECAwGRnJhbmNlMQswCQYDVQQGEwJGUjEpMCcGCSqGSIb3DQEJARYa
aHVnby5taWxsZXRAaXNlbi55bmNyZWEuZnIxDTALBgNVBAoMBElTRU4xDTALBgNV
BAsMBElTRU4wHhcNMjMwNDIzMTU0NjA0WhcNNDMwNDE4MTU0NjA0WjB6MREwDwYD
VQQDDAhJU0VOIEFDUjEPMA0GA1UECAwGRnJhbmNlMQswCQYDVQQGEwJGUjEpMCcG
CSqGSIb3DQEJARYaaHVnby5taWxsZXRAaXNlbi55bmNyZWEuZnIxDTALBgNVBAoM
BElTRU4xDTALBgNVBAsMBElTRU4wdjAQBgcqhkjOPQIBBgUrgQQAIgNiAASn80n1
XPkhRat06kGErSq623zAFiMDVXFzKXDncX02+vvonStJD58mBXvPAZqAJsIMFG//
8X+c/jEBNVhy7vnxjSLxxF7ObzCtrG7lNP4uzWSg6aLW5DTVDvtA75xzHW+jQjBA
MBIGA1UdEwEB/wQIMAYBAf8CAQEwCwYDVR0PBAQDAgKkMB0GA1UdDgQWBBQBJ0bT
6zlLdcf/Zqi0UPHvWdLvLjAKBggqhkjOPQQDAgNnADBkAjBxoz+4uvDVmOspEIc7
Bg+2/IM4TQ1T0/w/BGgH46pgkAus9lZVmAgry/rp+b7ECQQCMHWq0Vn78PGzpiS7
Fw4qxA7c0LQtWMObAI2rpuxsAl/fIeateySoEhrPKnvyO7BYQA==
-----END CERTIFICATE-----
