Certificate:
    Data:
        Version: 3 (0x2)
        Serial Number: 1 (0x1)
        Signature Algorithm: ecdsa-with-SHA256
        Issuer: CN=ISEN ACR, ST=France, C=FR/emailAddress=hugo.millet@isen.yncrea.fr, O=ISEN, OU=ISEN
        Validity
            Not Before: Apr 30 15:00:15 2023 GMT
            Not After : Apr 25 15:00:15 2043 GMT
        Subject: CN=ISEN ACR, ST=France, C=FR/emailAddress=hugo.millet@isen.yncrea.fr, O=ISEN, OU=ISEN
        Subject Public Key Info:
            Public Key Algorithm: id-ecPublicKey
                Public-Key: (256 bit)
                pub:
                    04:0e:94:98:47:82:51:da:18:5c:c2:f0:a3:67:56:
                    e7:94:72:c5:1a:5a:c4:f3:82:c1:c2:25:2a:be:5b:
                    36:c0:f9:73:c8:f1:ef:c9:fb:03:4e:92:94:57:47:
                    bf:a8:bb:02:bc:bb:08:49:11:30:5e:fb:39:db:a5:
                    71:a9:3f:2a:77
                ASN1 OID: prime256v1
                NIST CURVE: P-256
        X509v3 extensions:
            X509v3 Basic Constraints: critical
                CA:TRUE, pathlen:1
            X509v3 Key Usage: 
                Digital Signature, Key Encipherment, Certificate Sign
            X509v3 Subject Key Identifier: 
                8E:04:38:28:D8:1A:CB:DF:D5:38:F0:F0:55:A5:1B:54:9B:CE:AC:E0
    Signature Algorithm: ecdsa-with-SHA256
    Signature Value:
        30:46:02:21:00:f4:43:77:16:c3:6a:20:93:43:ff:e3:43:17:
        31:f6:b9:e1:a5:a5:e5:dc:67:75:99:1b:da:78:c5:d4:60:de:
        9a:02:21:00:e9:ec:4e:4b:e6:43:59:bb:2d:ac:6e:21:09:be:
        f3:8f:d1:91:55:52:bf:ea:dc:57:d9:69:71:98:03:3f:e0:44
-----BEGIN CERTIFICATE-----
MIICJjCCAcugAwIBAgIBATAKBggqhkjOPQQDAjB6MREwDwYDVQQDDAhJU0VOIEFD
UjEPMA0GA1UECAwGRnJhbmNlMQswCQYDVQQGEwJGUjEpMCcGCSqGSIb3DQEJARYa
aHVnby5taWxsZXRAaXNlbi55bmNyZWEuZnIxDTALBgNVBAoMBElTRU4xDTALBgNV
BAsMBElTRU4wHhcNMjMwNDMwMTUwMDE1WhcNNDMwNDI1MTUwMDE1WjB6MREwDwYD
VQQDDAhJU0VOIEFDUjEPMA0GA1UECAwGRnJhbmNlMQswCQYDVQQGEwJGUjEpMCcG
CSqGSIb3DQEJARYaaHVnby5taWxsZXRAaXNlbi55bmNyZWEuZnIxDTALBgNVBAoM
BElTRU4xDTALBgNVBAsMBElTRU4wWTATBgcqhkjOPQIBBggqhkjOPQMBBwNCAAQO
lJhHglHaGFzC8KNnVueUcsUaWsTzgsHCJSq+WzbA+XPI8e/J+wNOkpRXR7+ouwK8
uwhJETBe+znbpXGpPyp3o0IwQDASBgNVHRMBAf8ECDAGAQH/AgEBMAsGA1UdDwQE
AwICpDAdBgNVHQ4EFgQUjgQ4KNgay9/VOPDwVaUbVJvOrOAwCgYIKoZIzj0EAwID
SQAwRgIhAPRDdxbDaiCTQ//jQxcx9rnhpaXl3Gd1mRvaeMXUYN6aAiEA6exOS+ZD
WbstrG4hCb7zj9GRVVK/6txX2WlxmAM/4EQ=
-----END CERTIFICATE-----
